

Microchip MPLAB XC8 Assembler V2.32 build 20210201212658 
                                                                                               Sun Nov 07 18:41:47 2021

Microchip MPLAB XC8 C Compiler v2.32 (Free license) build 20210201212658 Og1 
     1                           	processor	18F25K50
     2                           	fnconf	rparam,??,?,0
     3                           	pagewidth 120
     4                           	opt	flic
     5                           	psect	idataBANK0,global,class=CODE,delta=1,noexec
     6                           	psect	cinit,global,reloc=2,class=CODE,delta=1
     7                           	psect	bssBANK0,global,class=BANK0,space=1,delta=1,lowdata,noexec
     8                           	psect	dataBANK0,global,class=BANK0,space=1,delta=1,lowdata,noexec
     9                           	psect	cstackBANK0,global,class=BANK0,space=1,delta=1,lowdata,noexec
    10                           	psect	cstackCOMRAM,global,class=COMRAM,space=1,delta=1,lowdata,noexec
    11                           	psect	text0,global,reloc=2,class=CODE,delta=1
    12                           	psect	text1,global,reloc=2,class=CODE,delta=1
    13                           	psect	text2,global,reloc=2,class=CODE,delta=1,group=1
    14                           	psect	text3,global,reloc=2,class=CODE,delta=1
    15                           	psect	text4,global,reloc=2,class=CODE,delta=1
    16                           	psect	text5,global,reloc=2,class=CODE,delta=1
    17                           	psect	text6,global,reloc=2,class=CODE,delta=1
    18                           	psect	text7,global,reloc=2,class=CODE,delta=1,group=1
    19                           	psect	text8,global,reloc=2,class=CODE,delta=1,group=1
    20                           	psect	text9,global,reloc=2,class=CODE,delta=1,group=1
    21                           	psect	text10,global,reloc=2,class=CODE,delta=1,group=1
    22                           	psect	text11,global,reloc=2,class=CODE,delta=1,group=1
    23                           	psect	text12,global,reloc=2,class=CODE,delta=1,group=1
    24                           	psect	intsave_regs,global,class=BIGRAM,space=1,delta=1,noexec
    25                           	psect	rparam,global,class=COMRAM,space=1,delta=1,noexec
    26                           	psect	idloc,global,abs,ovrld,class=IDLOC,space=5,delta=1,noexec
    27                           	psect	config,global,abs,ovrld,class=CONFIG,space=4,delta=1,noexec
    28  0000                     
    29                           ; Version 2.20
    30                           ; Generated 05/05/2020 GMT
    31                           ; 
    32                           ; Copyright © 2020, Microchip Technology Inc. and its subsidiaries ("Microchip")
    33                           ; All rights reserved.
    34                           ; 
    35                           ; This software is developed by Microchip Technology Inc. and its subsidiaries ("Microch
      +                          ip").
    36                           ; 
    37                           ; Redistribution and use in source and binary forms, with or without modification, are
    38                           ; permitted provided that the following conditions are met:
    39                           ; 
    40                           ;     1. Redistributions of source code must retain the above copyright notice, this lis
      +                          t of
    41                           ;        conditions and the following disclaimer.
    42                           ; 
    43                           ;     2. Redistributions in binary form must reproduce the above copyright notice, this 
      +                          list
    44                           ;        of conditions and the following disclaimer in the documentation and/or other
    45                           ;        materials provided with the distribution.
    46                           ; 
    47                           ;     3. Microchip's name may not be used to endorse or promote products derived from th
      +                          is
    48                           ;        software without specific prior written permission.
    49                           ; 
    50                           ; THIS SOFTWARE IS PROVIDED BY MICROCHIP "AS IS" AND ANY EXPRESS OR IMPLIED WARRANTIES,
    51                           ; INCLUDING, BUT NOT LIMITED TO, THE IMPLIED WARRANTIES OF MERCHANTABILITY AND FITNESS F
      +                          OR
    52                           ; PURPOSE ARE DISCLAIMED.  IN NO EVENT SHALL MICROCHIP BE LIABLE FOR ANY DIRECT, INDIREC
      +                          T,
    53                           ; INCIDENTAL, SPECIAL, EXEMPLARY, OR CONSEQUENTIAL DAMAGES (INCLUDING BUT NOT LIMITED TO
    54                           ; PROCUREMENT OF SUBSTITUTE GOODS OR SERVICES; LOSS OF USE, DATA OR PROFITS; OR BUSINESS
    55                           ; INTERRUPTION) HOWSOEVER CAUSED AND ON ANY THEORY OF LIABILITY, WHETHER IN CONTRACT, ST
      +                          RICT
    56                           ; LIABILITY, OR TORT (INCLUDING NEGLIGENCE OR OTHERWISE) ARISING IN ANY WAY OUT OF THE U
      +                          SE OF
    57                           ; THIS SOFTWARE, EVEN IF ADVISED OF THE POSSIBILITY OF SUCH DAMAGE.
    58                           ; 
    59                           ; 
    60                           ; Code-generator required, PIC18F25K50 Definitions
    61                           ; 
    62                           ; SFR Addresses
    63  0000                     
    64                           	psect	idataBANK0
    65  006CE4                     __pidataBANK0:
    66                           	callstack 0
    67                           
    68                           ;initializer for _PWM_freq
    69  006CE4  61A8               	dw	25000
    70  0000                     _PORTBbits	set	3969
    71  0000                     _LATCbits	set	3979
    72  0000                     _TRISBbits	set	3987
    73  0000                     _TRISCbits	set	3988
    74  0000                     _CCPR1L	set	4030
    75  0000                     _PR2	set	4027
    76  0000                     _T2CON	set	4026
    77  0000                     _CCP1Y	set	32236
    78  0000                     _CCP1X	set	32237
    79  0000                     _TRISC2	set	31906
    80  0000                     _TMR2ON	set	32210
    81  0000                     _T2CKPS1	set	32209
    82  0000                     _T2CKPS0	set	32208
    83  0000                     _CCP1M2	set	32234
    84  0000                     _CCP1M3	set	32235
    85                           
    86                           ; #config settings
    87                           
    88                           	psect	cinit
    89  006D1E                     __pcinit:
    90                           	callstack 0
    91  006D1E                     start_initialization:
    92                           	callstack 0
    93  006D1E                     __initialization:
    94                           	callstack 0
    95                           
    96                           ; Initialize objects allocated to BANK0 (2 bytes)
    97                           ; load TBLPTR registers with __pidataBANK0
    98  006D1E  0EE4               	movlw	low __pidataBANK0
    99  006D20  6EF6               	movwf	tblptrl,c
   100  006D22  0E6C               	movlw	high __pidataBANK0
   101  006D24  6EF7               	movwf	tblptrh,c
   102  006D26  0E00               	movlw	low (__pidataBANK0 shr (0+16))
   103  006D28  6EF8               	movwf	tblptru,c
   104  006D2A  0009               	tblrd		*+	;fetch initializer
   105  006D2C  CFF5 F0CA          	movff	tablat,__pdataBANK0
   106  006D30  0009               	tblrd		*+	;fetch initializer
   107  006D32  CFF5 F0CB          	movff	tablat,__pdataBANK0+1
   108                           
   109                           ; Clear objects allocated to BANK0 (90 bytes)
   110  006D36  EE00  F060         	lfsr	0,__pbssBANK0
   111  006D3A  0E5A               	movlw	90
   112  006D3C                     clear_0:
   113  006D3C  6AEE               	clrf	postinc0,c
   114  006D3E  06E8               	decf	wreg,f,c
   115  006D40  E1FD               	bnz	clear_0
   116  006D42                     end_of_initialization:
   117                           	callstack 0
   118  006D42                     __end_of__initialization:
   119                           	callstack 0
   120  006D42  0E00               	movlw	low (__Lmediumconst shr (0+16))
   121  006D44  6EF8               	movwf	tblptru,c
   122  006D46  0100               	movlb	0
   123  006D48  EFD2  F03A         	goto	_main	;jump to C main() function
   124                           
   125                           	psect	bssBANK0
   126  000060                     __pbssBANK0:
   127                           	callstack 0
   128  000060                     _timerTimers:
   129                           	callstack 0
   130  000060                     	ds	32
   131  000080                     _timerMemory:
   132                           	callstack 0
   133  000080                     	ds	16
   134  000090                     _timerInSession:
   135                           	callstack 0
   136  000090                     	ds	16
   137  0000A0                     _oneShotBits:
   138                           	callstack 0
   139  0000A0                     	ds	16
   140  0000B0                     _milliseconds:
   141                           	callstack 0
   142  0000B0                     	ds	4
   143  0000B4                     _TMR2PRESCALE:
   144                           	callstack 0
   145  0000B4                     	ds	2
   146  0000B6                     _timerTracker:
   147                           	callstack 0
   148  0000B6                     	ds	2
   149  0000B8                     _ONSTracker:
   150                           	callstack 0
   151  0000B8                     	ds	2
   152                           
   153                           	psect	dataBANK0
   154  0000CA                     __pdataBANK0:
   155                           	callstack 0
   156  0000CA                     _PWM_freq:
   157                           	callstack 0
   158  0000CA                     	ds	2
   159                           
   160                           	psect	cstackBANK0
   161  0000BA                     __pcstackBANK0:
   162                           	callstack 0
   163  0000BA                     PWM_Duty@duty:
   164                           	callstack 0
   165                           
   166                           ; 2 bytes @ 0x0
   167  0000BA                     	ds	2
   168  0000BC                     ??_PWM_Duty:
   169                           
   170                           ; 1 bytes @ 0x2
   171  0000BC                     	ds	2
   172  0000BE                     main@stopper:
   173                           	callstack 0
   174                           
   175                           ; 4 bytes @ 0x4
   176  0000BE                     	ds	4
   177  0000C2                     main@numBlinks:
   178                           	callstack 0
   179                           
   180                           ; 2 bytes @ 0x8
   181  0000C2                     	ds	2
   182  0000C4                     _main$884:
   183                           	callstack 0
   184                           
   185                           ; 2 bytes @ 0xA
   186  0000C4                     	ds	2
   187  0000C6                     main@donePulsing:
   188                           	callstack 0
   189                           
   190                           ; 2 bytes @ 0xC
   191  0000C6                     	ds	2
   192  0000C8                     main@mode:
   193                           	callstack 0
   194                           
   195                           ; 2 bytes @ 0xE
   196  0000C8                     	ds	2
   197                           
   198                           	psect	cstackCOMRAM
   199  000001                     __pcstackCOMRAM:
   200                           	callstack 0
   201  000001                     ?___wmul:
   202                           	callstack 0
   203  000001                     ?_millis:
   204                           	callstack 0
   205  000001                     ___wmul@multiplier:
   206                           	callstack 0
   207                           
   208                           ; 2 bytes @ 0x0
   209  000001                     	ds	2
   210  000003                     ___wmul@multiplicand:
   211                           	callstack 0
   212                           
   213                           ; 2 bytes @ 0x2
   214  000003                     	ds	2
   215  000005                     ?_TON:
   216                           	callstack 0
   217  000005                     ?___llmod:
   218                           	callstack 0
   219  000005                     TON@input:
   220                           	callstack 0
   221  000005                     ___wmul@product:
   222                           	callstack 0
   223  000005                     ___llmod@dividend:
   224                           	callstack 0
   225                           
   226                           ; 4 bytes @ 0x4
   227  000005                     	ds	2
   228  000007                     ?___aldiv:
   229                           	callstack 0
   230  000007                     TON@preset:
   231                           	callstack 0
   232  000007                     ___aldiv@dividend:
   233                           	callstack 0
   234                           
   235                           ; 4 bytes @ 0x6
   236  000007                     	ds	2
   237  000009                     TON@timerNumber:
   238                           	callstack 0
   239  000009                     ___llmod@divisor:
   240                           	callstack 0
   241                           
   242                           ; 4 bytes @ 0x8
   243  000009                     	ds	2
   244  00000B                     ??_TON:
   245  00000B                     ___aldiv@divisor:
   246                           	callstack 0
   247                           
   248                           ; 4 bytes @ 0xA
   249  00000B                     	ds	2
   250  00000D                     ___llmod@counter:
   251                           	callstack 0
   252                           
   253                           ; 1 bytes @ 0xC
   254  00000D                     	ds	2
   255  00000F                     ___aldiv@counter:
   256                           	callstack 0
   257                           
   258                           ; 1 bytes @ 0xE
   259  00000F                     	ds	1
   260  000010                     ___aldiv@sign:
   261                           	callstack 0
   262                           
   263                           ; 1 bytes @ 0xF
   264  000010                     	ds	1
   265  000011                     ___aldiv@quotient:
   266                           	callstack 0
   267                           
   268                           ; 4 bytes @ 0x10
   269  000011                     	ds	4
   270  000015                     ??_PWM_Initialize:
   271  000015                     ?___xxtofl:
   272                           	callstack 0
   273  000015                     ___xxtofl@val:
   274                           	callstack 0
   275                           
   276                           ; 4 bytes @ 0x14
   277  000015                     	ds	4
   278  000019                     ??___xxtofl:
   279  000019                     ?_oneShot:
   280                           	callstack 0
   281  000019                     oneShot@precond:
   282                           	callstack 0
   283                           
   284                           ; 2 bytes @ 0x18
   285  000019                     	ds	2
   286  00001B                     oneShot@OSR:
   287                           	callstack 0
   288                           
   289                           ; 2 bytes @ 0x1A
   290  00001B                     	ds	2
   291  00001D                     ___xxtofl@sign:
   292                           	callstack 0
   293                           
   294                           ; 1 bytes @ 0x1C
   295  00001D                     	ds	1
   296  00001E                     ___xxtofl@exp:
   297                           	callstack 0
   298                           
   299                           ; 1 bytes @ 0x1D
   300  00001E                     	ds	1
   301  00001F                     ___xxtofl@arg:
   302                           	callstack 0
   303                           
   304                           ; 4 bytes @ 0x1E
   305  00001F                     	ds	4
   306  000023                     ?___fldiv:
   307                           	callstack 0
   308  000023                     ___fldiv@b:
   309                           	callstack 0
   310                           
   311                           ; 4 bytes @ 0x22
   312  000023                     	ds	4
   313  000027                     ___fldiv@a:
   314                           	callstack 0
   315                           
   316                           ; 4 bytes @ 0x26
   317  000027                     	ds	4
   318  00002B                     ??___fldiv:
   319                           
   320                           ; 1 bytes @ 0x2A
   321  00002B                     	ds	4
   322  00002F                     ___fldiv@rem:
   323                           	callstack 0
   324                           
   325                           ; 4 bytes @ 0x2E
   326  00002F                     	ds	4
   327  000033                     ___fldiv@sign:
   328                           	callstack 0
   329                           
   330                           ; 1 bytes @ 0x32
   331  000033                     	ds	1
   332  000034                     ___fldiv@new_exp:
   333                           	callstack 0
   334                           
   335                           ; 2 bytes @ 0x33
   336  000034                     	ds	2
   337  000036                     ___fldiv@grs:
   338                           	callstack 0
   339                           
   340                           ; 4 bytes @ 0x35
   341  000036                     	ds	4
   342  00003A                     ___fldiv@bexp:
   343                           	callstack 0
   344                           
   345                           ; 1 bytes @ 0x39
   346  00003A                     	ds	1
   347  00003B                     ___fldiv@aexp:
   348                           	callstack 0
   349                           
   350                           ; 1 bytes @ 0x3A
   351  00003B                     	ds	1
   352  00003C                     ?___flmul:
   353                           	callstack 0
   354  00003C                     ___flmul@b:
   355                           	callstack 0
   356                           
   357                           ; 4 bytes @ 0x3B
   358  00003C                     	ds	4
   359  000040                     ___flmul@a:
   360                           	callstack 0
   361                           
   362                           ; 4 bytes @ 0x3F
   363  000040                     	ds	4
   364  000044                     ??___flmul:
   365                           
   366                           ; 1 bytes @ 0x43
   367  000044                     	ds	4
   368  000048                     ___flmul@sign:
   369                           	callstack 0
   370                           
   371                           ; 1 bytes @ 0x47
   372  000048                     	ds	1
   373  000049                     ___flmul@grs:
   374                           	callstack 0
   375                           
   376                           ; 4 bytes @ 0x48
   377  000049                     	ds	4
   378  00004D                     ___flmul@aexp:
   379                           	callstack 0
   380                           
   381                           ; 1 bytes @ 0x4C
   382  00004D                     	ds	1
   383  00004E                     ___flmul@bexp:
   384                           	callstack 0
   385                           
   386                           ; 1 bytes @ 0x4D
   387  00004E                     	ds	1
   388  00004F                     ___flmul@prod:
   389                           	callstack 0
   390                           
   391                           ; 4 bytes @ 0x4E
   392  00004F                     	ds	4
   393  000053                     ___flmul@temp:
   394                           	callstack 0
   395                           
   396                           ; 2 bytes @ 0x52
   397  000053                     	ds	2
   398  000055                     ?___fltol:
   399                           	callstack 0
   400  000055                     ___fltol@f1:
   401                           	callstack 0
   402                           
   403                           ; 4 bytes @ 0x54
   404  000055                     	ds	4
   405  000059                     ??___fltol:
   406                           
   407                           ; 1 bytes @ 0x58
   408  000059                     	ds	4
   409  00005D                     ___fltol@sign1:
   410                           	callstack 0
   411                           
   412                           ; 1 bytes @ 0x5C
   413  00005D                     	ds	1
   414  00005E                     ___fltol@exp1:
   415                           	callstack 0
   416                           
   417                           ; 1 bytes @ 0x5D
   418  00005E                     	ds	1
   419  00005F                     ??_main:
   420                           
   421                           ; 1 bytes @ 0x5E
   422  00005F                     	ds	1
   423                           
   424 ;;
   425 ;;Main: autosize = 0, tempsize = 1, incstack = 0, save=0
   426 ;;
   427 ;; *************** function _main *****************
   428 ;; Defined at:
   429 ;;		line 111 in file "main.c"
   430 ;; Parameters:    Size  Location     Type
   431 ;;		None
   432 ;; Auto vars:     Size  Location     Type
   433 ;;  stopper         4    4[BANK0 ] unsigned long 
   434 ;;  mode            2   14[BANK0 ] int 
   435 ;;  donePulsing     2   12[BANK0 ] int 
   436 ;;  numBlinks       2    8[BANK0 ] int 
   437 ;; Return value:  Size  Location     Type
   438 ;;                  1    wreg      void 
   439 ;; Registers used:
   440 ;;		wreg, fsr2l, fsr2h, status,2, status,0, prodl, prodh, cstack
   441 ;; Tracked objects:
   442 ;;		On entry : 0/0
   443 ;;		On exit  : 0/0
   444 ;;		Unchanged: 0/0
   445 ;; Data sizes:     COMRAM   BANK0   BANK1   BANK2   BANK3   BANK4   BANK5   BANK6   BANK7
   446 ;;      Params:         0       0       0       0       0       0       0       0       0
   447 ;;      Locals:         0      12       0       0       0       0       0       0       0
   448 ;;      Temps:          1       0       0       0       0       0       0       0       0
   449 ;;      Totals:         1      12       0       0       0       0       0       0       0
   450 ;;Total ram usage:       13 bytes
   451 ;; Hardware stack levels required when called: 2
   452 ;; This function calls:
   453 ;;		_PWM_Duty
   454 ;;		_PWM_Initialize
   455 ;;		_TON
   456 ;;		___llmod
   457 ;;		___wmul
   458 ;;		_millis
   459 ;;		_oneShot
   460 ;; This function is called by:
   461 ;;		Startup code after reset
   462 ;; This function uses a non-reentrant model
   463 ;;
   464                           
   465                           	psect	text0
   466  0075A4                     __ptext0:
   467                           	callstack 0
   468  0075A4                     _main:
   469                           	callstack 29
   470  0075A4                     
   471                           ;main.c: 116:     TRISCbits.TRISC6 = 0;
   472  0075A4  9C94               	bcf	148,6,c	;volatile
   473                           
   474                           ;main.c: 117:     TRISCbits.TRISC0 = 0;
   475  0075A6  9094               	bcf	148,0,c	;volatile
   476                           
   477                           ;main.c: 118:     TRISBbits.TRISB6 = 1;
   478  0075A8  8C93               	bsf	147,6,c	;volatile
   479                           
   480                           ;main.c: 121:     LATCbits.LATC6 = 1;
   481  0075AA  8C8B               	bsf	139,6,c	;volatile
   482                           
   483                           ;main.c: 122:     LATCbits.LATC0 = 0;
   484  0075AC  908B               	bcf	139,0,c	;volatile
   485  0075AE                     
   486                           ;main.c: 124:     int mode = 2;
   487  0075AE  0E00               	movlw	0
   488  0075B0  0100               	movlb	0	; () banked
   489  0075B2  6FC9               	movwf	(main@mode+1)& (0+255),b
   490  0075B4  0E02               	movlw	2
   491  0075B6  6FC8               	movwf	main@mode& (0+255),b
   492                           
   493                           ;main.c: 125:     int numBlinks = 0;
   494  0075B8  0E00               	movlw	0
   495  0075BA  6FC3               	movwf	(main@numBlinks+1)& (0+255),b
   496  0075BC  0E00               	movlw	0
   497  0075BE  6FC2               	movwf	main@numBlinks& (0+255),b
   498                           
   499                           ;main.c: 126:     int donePulsing = 0;
   500  0075C0  0E00               	movlw	0
   501  0075C2  6FC7               	movwf	(main@donePulsing+1)& (0+255),b
   502  0075C4  0E00               	movlw	0
   503  0075C6  6FC6               	movwf	main@donePulsing& (0+255),b
   504                           
   505                           ;main.c: 127:     unsigned long stopper = (2UL*0x7fffffffL +1) / 2 - 1;
   506  0075C8  0EFE               	movlw	254
   507  0075CA  6FBE               	movwf	main@stopper& (0+255),b
   508  0075CC  0EFF               	movlw	255
   509  0075CE  6FBF               	movwf	(main@stopper+1)& (0+255),b
   510  0075D0  0EFF               	movlw	255
   511  0075D2  6FC0               	movwf	(main@stopper+2)& (0+255),b
   512  0075D4  0E7F               	movlw	127
   513  0075D6  6FC1               	movwf	(main@stopper+3)& (0+255),b
   514  0075D8                     
   515                           ; BSR set to: 0
   516                           ;main.c: 129:     PWM_Initialize();
   517  0075D8  ECEA  F036         	call	_PWM_Initialize	;wreg free
   518  0075DC                     
   519                           ;main.c: 130:     PWM_Duty((1023 / 5) * mode);
   520  0075DC  C0C8  F001         	movff	main@mode,___wmul@multiplier
   521  0075E0  C0C9  F002         	movff	main@mode+1,___wmul@multiplier+1
   522  0075E4  0E00               	movlw	0
   523  0075E6  6E04               	movwf	(___wmul@multiplicand+1)^0,c
   524  0075E8  0ECC               	movlw	204
   525  0075EA  6E03               	movwf	___wmul@multiplicand^0,c
   526  0075EC  EC7C  F036         	call	___wmul	;wreg free
   527  0075F0  C001  F0C4         	movff	?___wmul,_main$884
   528  0075F4  C002  F0C5         	movff	?___wmul+1,_main$884+1
   529  0075F8                     
   530                           ;main.c: 130:     PWM_Duty((1023 / 5) * mode);
   531  0075F8  C0C4  F0BA         	movff	_main$884,PWM_Duty@duty
   532  0075FC  C0C5  F0BB         	movff	_main$884+1,PWM_Duty@duty+1
   533  007600  EC22  F038         	call	_PWM_Duty	;wreg free
   534  007604                     l1896:
   535                           
   536                           ;main.c: 133:     {;main.c: 135:         ONSTracker = 0;
   537  007604  0E00               	movlw	0
   538  007606  0100               	movlb	0	; () banked
   539  007608  6FB9               	movwf	(_ONSTracker+1)& (0+255),b
   540  00760A  0E00               	movlw	0
   541  00760C  6FB8               	movwf	_ONSTracker& (0+255),b
   542  00760E                     
   543                           ; BSR set to: 0
   544                           ;main.c: 136:         timerTracker = 0;
   545  00760E  0E00               	movlw	0
   546  007610  6FB7               	movwf	(_timerTracker+1)& (0+255),b
   547  007612  0E00               	movlw	0
   548  007614  6FB6               	movwf	_timerTracker& (0+255),b
   549  007616                     
   550                           ; BSR set to: 0
   551                           ;main.c: 141:         if (oneShot(TON(PORTBbits.RB6, 20, timerTracker++), ONSTracker++))
   552  007616  BC81               	btfsc	129,6,c	;volatile
   553  007618  EF10  F03B         	goto	u1751
   554  00761C  EF14  F03B         	goto	u1750
   555  007620                     u1751:
   556  007620  6A5F               	clrf	??_main^0,c
   557  007622  2A5F               	incf	??_main^0,f,c
   558  007624  EF15  F03B         	goto	u1758
   559  007628                     u1750:
   560  007628  6A5F               	clrf	??_main^0,c
   561  00762A                     u1758:
   562  00762A  505F               	movf	??_main^0,w,c
   563  00762C  6E05               	movwf	TON@input^0,c
   564  00762E  6A06               	clrf	(TON@input+1)^0,c
   565  007630  0E00               	movlw	0
   566  007632  6E08               	movwf	(TON@preset+1)^0,c
   567  007634  0E14               	movlw	20
   568  007636  6E07               	movwf	TON@preset^0,c
   569  007638  0100               	movlb	0	; () banked
   570  00763A  51B6               	movf	_timerTracker& (0+255),w,b
   571  00763C  6E09               	movwf	TON@timerNumber^0,c
   572  00763E  51B7               	movf	(_timerTracker+1)& (0+255),w,b
   573  007640  6E0A               	movwf	(TON@timerNumber+1)^0,c
   574  007642  4BB6               	infsnz	_timerTracker& (0+255),f,b
   575  007644  2BB7               	incf	(_timerTracker+1)& (0+255),f,b
   576  007646  EC2B  F039         	call	_TON	;wreg free
   577  00764A  C005  F019         	movff	?_TON,oneShot@precond
   578  00764E  C006  F01A         	movff	?_TON+1,oneShot@precond+1
   579  007652  0100               	movlb	0	; () banked
   580  007654  51B8               	movf	_ONSTracker& (0+255),w,b
   581  007656  6E1B               	movwf	oneShot@OSR^0,c
   582  007658  51B9               	movf	(_ONSTracker+1)& (0+255),w,b
   583  00765A  6E1C               	movwf	(oneShot@OSR+1)^0,c
   584  00765C  4BB8               	infsnz	_ONSTracker& (0+255),f,b
   585  00765E  2BB9               	incf	(_ONSTracker+1)& (0+255),f,b
   586  007660  EC44  F037         	call	_oneShot	;wreg free
   587  007664  5019               	movf	?_oneShot^0,w,c
   588  007666  101A               	iorwf	(?_oneShot+1)^0,w,c
   589  007668  B4D8               	btfsc	status,2,c
   590  00766A  EF39  F03B         	goto	u1761
   591  00766E  EF3B  F03B         	goto	u1760
   592  007672                     u1761:
   593  007672  EF64  F03B         	goto	l1912
   594  007676                     u1760:
   595  007676                     
   596                           ;main.c: 142:         {;main.c: 143:             mode++;
   597  007676  0100               	movlb	0	; () banked
   598  007678  4BC8               	infsnz	main@mode& (0+255),f,b
   599  00767A  2BC9               	incf	(main@mode+1)& (0+255),f,b
   600  00767C                     
   601                           ; BSR set to: 0
   602                           ;main.c: 144:             if (mode > 5)
   603  00767C  BFC9               	btfsc	(main@mode+1)& (0+255),7,b
   604  00767E  EF4A  F03B         	goto	u1771
   605  007682  51C9               	movf	(main@mode+1)& (0+255),w,b
   606  007684  E109               	bnz	u1770
   607  007686  0E06               	movlw	6
   608  007688  5DC8               	subwf	main@mode& (0+255),w,b
   609  00768A  A0D8               	btfss	status,0,c
   610  00768C  EF4A  F03B         	goto	u1771
   611  007690  EF4C  F03B         	goto	u1770
   612  007694                     u1771:
   613  007694  EF50  F03B         	goto	l1908
   614  007698                     u1770:
   615  007698                     
   616                           ; BSR set to: 0
   617                           ;main.c: 145:                 mode = 0;
   618  007698  0E00               	movlw	0
   619  00769A  6FC9               	movwf	(main@mode+1)& (0+255),b
   620  00769C  0E00               	movlw	0
   621  00769E  6FC8               	movwf	main@mode& (0+255),b
   622  0076A0                     l1908:
   623                           
   624                           ; BSR set to: 0
   625                           ;main.c: 146:             PWM_Duty(mode * (1020/5));
   626  0076A0  C0C8  F001         	movff	main@mode,___wmul@multiplier
   627  0076A4  C0C9  F002         	movff	main@mode+1,___wmul@multiplier+1
   628  0076A8  0E00               	movlw	0
   629  0076AA  6E04               	movwf	(___wmul@multiplicand+1)^0,c
   630  0076AC  0ECC               	movlw	204
   631  0076AE  6E03               	movwf	___wmul@multiplicand^0,c
   632  0076B0  EC7C  F036         	call	___wmul	;wreg free
   633  0076B4  C001  F0C4         	movff	?___wmul,_main$884
   634  0076B8  C002  F0C5         	movff	?___wmul+1,_main$884+1
   635  0076BC                     
   636                           ;main.c: 146:             PWM_Duty(mode * (1020/5));
   637  0076BC  C0C4  F0BA         	movff	_main$884,PWM_Duty@duty
   638  0076C0  C0C5  F0BB         	movff	_main$884+1,PWM_Duty@duty+1
   639  0076C4  EC22  F038         	call	_PWM_Duty	;wreg free
   640  0076C8                     l1912:
   641                           
   642                           ;main.c: 150:         if (oneShot(millis() % 200 > 100, ONSTracker++) && !donePulsing)
   643  0076C8  EC73  F036         	call	_millis	;wreg free
   644  0076CC  C001  F005         	movff	?_millis,___llmod@dividend
   645  0076D0  C002  F006         	movff	?_millis+1,___llmod@dividend+1
   646  0076D4  C003  F007         	movff	?_millis+2,___llmod@dividend+2
   647  0076D8  C004  F008         	movff	?_millis+3,___llmod@dividend+3
   648  0076DC  0EC8               	movlw	200
   649  0076DE  6E09               	movwf	___llmod@divisor^0,c
   650  0076E0  0E00               	movlw	0
   651  0076E2  6E0A               	movwf	(___llmod@divisor+1)^0,c
   652  0076E4  0E00               	movlw	0
   653  0076E6  6E0B               	movwf	(___llmod@divisor+2)^0,c
   654  0076E8  0E00               	movlw	0
   655  0076EA  6E0C               	movwf	(___llmod@divisor+3)^0,c
   656  0076EC  ECA6  F036         	call	___llmod	;wreg free
   657  0076F0  5008               	movf	(?___llmod+3)^0,w,c
   658  0076F2  1007               	iorwf	(?___llmod+2)^0,w,c
   659  0076F4  1006               	iorwf	(?___llmod+1)^0,w,c
   660  0076F6  E107               	bnz	u1781
   661  0076F8  0E65               	movlw	101
   662  0076FA  5C05               	subwf	?___llmod^0,w,c
   663  0076FC  B0D8               	btfsc	status,0,c
   664  0076FE  EF83  F03B         	goto	u1781
   665  007702  EF86  F03B         	goto	u1780
   666  007706                     u1781:
   667  007706  0E01               	movlw	1
   668  007708  EF87  F03B         	goto	u1790
   669  00770C                     u1780:
   670  00770C  0E00               	movlw	0
   671  00770E                     u1790:
   672  00770E  6E19               	movwf	oneShot@precond^0,c
   673  007710  6A1A               	clrf	(oneShot@precond+1)^0,c
   674  007712  0100               	movlb	0	; () banked
   675  007714  51B8               	movf	_ONSTracker& (0+255),w,b
   676  007716  6E1B               	movwf	oneShot@OSR^0,c
   677  007718  51B9               	movf	(_ONSTracker+1)& (0+255),w,b
   678  00771A  6E1C               	movwf	(oneShot@OSR+1)^0,c
   679  00771C  4BB8               	infsnz	_ONSTracker& (0+255),f,b
   680  00771E  2BB9               	incf	(_ONSTracker+1)& (0+255),f,b
   681  007720  EC44  F037         	call	_oneShot	;wreg free
   682  007724  5019               	movf	?_oneShot^0,w,c
   683  007726  101A               	iorwf	(?_oneShot+1)^0,w,c
   684  007728  B4D8               	btfsc	status,2,c
   685  00772A  EF99  F03B         	goto	u1801
   686  00772E  EF9B  F03B         	goto	u1800
   687  007732                     u1801:
   688  007732  EFD2  F03B         	goto	l1930
   689  007736                     u1800:
   690  007736  0100               	movlb	0	; () banked
   691  007738  51C6               	movf	main@donePulsing& (0+255),w,b
   692  00773A  11C7               	iorwf	(main@donePulsing+1)& (0+255),w,b
   693  00773C  A4D8               	btfss	status,2,c
   694  00773E  EFA3  F03B         	goto	u1811
   695  007742  EFA5  F03B         	goto	u1810
   696  007746                     u1811:
   697  007746  EFD2  F03B         	goto	l1930
   698  00774A                     u1810:
   699  00774A                     
   700                           ; BSR set to: 0
   701                           ;main.c: 151:         {;main.c: 152:             if (!LATCbits.LATC6)
   702  00774A  BC8B               	btfsc	139,6,c	;volatile
   703  00774C  EFAA  F03B         	goto	u1821
   704  007750  EFAC  F03B         	goto	u1820
   705  007754                     u1821:
   706  007754  EFC8  F03B         	goto	l1926
   707  007758                     u1820:
   708  007758                     
   709                           ; BSR set to: 0
   710                           ;main.c: 153:             {;main.c: 154:                 LATCbits.LATC6 = 1;
   711  007758  8C8B               	bsf	139,6,c	;volatile
   712  00775A                     
   713                           ; BSR set to: 0
   714                           ;main.c: 155:                 numBlinks++;
   715  00775A  4BC2               	infsnz	main@numBlinks& (0+255),f,b
   716  00775C  2BC3               	incf	(main@numBlinks+1)& (0+255),f,b
   717  00775E                     
   718                           ; BSR set to: 0
   719                           ;main.c: 156:                 if (numBlinks >= mode)
   720  00775E  51C8               	movf	main@mode& (0+255),w,b
   721  007760  5DC2               	subwf	main@numBlinks& (0+255),w,b
   722  007762  51C3               	movf	(main@numBlinks+1)& (0+255),w,b
   723  007764  0A80               	xorlw	128
   724  007766  6E5F               	movwf	??_main^0,c
   725  007768  51C9               	movf	(main@mode+1)& (0+255),w,b
   726  00776A  0A80               	xorlw	128
   727  00776C  585F               	subwfb	??_main^0,w,c
   728  00776E  A0D8               	btfss	status,0,c
   729  007770  EFBC  F03B         	goto	u1831
   730  007774  EFBE  F03B         	goto	u1830
   731  007778                     u1831:
   732  007778  EFD2  F03B         	goto	l1930
   733  00777C                     u1830:
   734  00777C                     
   735                           ; BSR set to: 0
   736                           ;main.c: 157:                 {;main.c: 158:                     numBlinks = 0;
   737  00777C  0E00               	movlw	0
   738  00777E  6FC3               	movwf	(main@numBlinks+1)& (0+255),b
   739  007780  0E00               	movlw	0
   740  007782  6FC2               	movwf	main@numBlinks& (0+255),b
   741                           
   742                           ;main.c: 159:                     donePulsing = 1;
   743  007784  0E00               	movlw	0
   744  007786  6FC7               	movwf	(main@donePulsing+1)& (0+255),b
   745  007788  0E01               	movlw	1
   746  00778A  6FC6               	movwf	main@donePulsing& (0+255),b
   747  00778C  EFD2  F03B         	goto	l1930
   748  007790                     l1926:
   749                           
   750                           ; BSR set to: 0
   751  007790  51C8               	movf	main@mode& (0+255),w,b
   752  007792  11C9               	iorwf	(main@mode+1)& (0+255),w,b
   753  007794  B4D8               	btfsc	status,2,c
   754  007796  EFCF  F03B         	goto	u1841
   755  00779A  EFD1  F03B         	goto	u1840
   756  00779E                     u1841:
   757  00779E  EFD2  F03B         	goto	l1930
   758  0077A2                     u1840:
   759  0077A2                     
   760                           ; BSR set to: 0
   761                           ;main.c: 163:                 LATCbits.LATC6 = 0;
   762  0077A2  9C8B               	bcf	139,6,c	;volatile
   763  0077A4                     l1930:
   764                           
   765                           ;main.c: 165:         if (TON(donePulsing, 1000, timerTracker++))
   766  0077A4  C0C6  F005         	movff	main@donePulsing,TON@input
   767  0077A8  C0C7  F006         	movff	main@donePulsing+1,TON@input+1
   768  0077AC  0E03               	movlw	3
   769  0077AE  6E08               	movwf	(TON@preset+1)^0,c
   770  0077B0  0EE8               	movlw	232
   771  0077B2  6E07               	movwf	TON@preset^0,c
   772  0077B4  0100               	movlb	0	; () banked
   773  0077B6  51B6               	movf	_timerTracker& (0+255),w,b
   774  0077B8  6E09               	movwf	TON@timerNumber^0,c
   775  0077BA  51B7               	movf	(_timerTracker+1)& (0+255),w,b
   776  0077BC  6E0A               	movwf	(TON@timerNumber+1)^0,c
   777  0077BE  4BB6               	infsnz	_timerTracker& (0+255),f,b
   778  0077C0  2BB7               	incf	(_timerTracker+1)& (0+255),f,b
   779  0077C2  EC2B  F039         	call	_TON	;wreg free
   780  0077C6  5005               	movf	?_TON^0,w,c
   781  0077C8  1006               	iorwf	(?_TON+1)^0,w,c
   782  0077CA  B4D8               	btfsc	status,2,c
   783  0077CC  EFEA  F03B         	goto	u1851
   784  0077D0  EFEC  F03B         	goto	u1850
   785  0077D4                     u1851:
   786  0077D4  EFF1  F03B         	goto	l1934
   787  0077D8                     u1850:
   788  0077D8                     
   789                           ;main.c: 166:         {;main.c: 167:             donePulsing = 0;
   790  0077D8  0E00               	movlw	0
   791  0077DA  0100               	movlb	0	; () banked
   792  0077DC  6FC7               	movwf	(main@donePulsing+1)& (0+255),b
   793  0077DE  0E00               	movlw	0
   794  0077E0  6FC6               	movwf	main@donePulsing& (0+255),b
   795  0077E2                     l1934:
   796                           
   797                           ;main.c: 182:         _delay((unsigned long)((1)*(48000000/4000.0)));
   798  0077E2  0E10               	movlw	16
   799  0077E4  6E5F               	movwf	??_main^0,c
   800  0077E6  0E94               	movlw	148
   801  0077E8                     u1877:
   802  0077E8  2EE8               	decfsz	wreg,f,c
   803  0077EA  D7FE               	bra	u1877
   804  0077EC  2E5F               	decfsz	??_main^0,f,c
   805  0077EE  D7FC               	bra	u1877
   806  0077F0  D000               	nop2	
   807  0077F2                     
   808                           ;main.c: 183:         milliseconds++;
   809  0077F2  0E01               	movlw	1
   810  0077F4  0100               	movlb	0	; () banked
   811  0077F6  27B0               	addwf	_milliseconds& (0+255),f,b
   812  0077F8  0E00               	movlw	0
   813  0077FA  23B1               	addwfc	(_milliseconds+1)& (0+255),f,b
   814  0077FC  23B2               	addwfc	(_milliseconds+2)& (0+255),f,b
   815  0077FE  23B3               	addwfc	(_milliseconds+3)& (0+255),f,b
   816  007800                     
   817                           ; BSR set to: 0
   818                           ;main.c: 184:         if (milliseconds == stopper)
   819  007800  51BE               	movf	main@stopper& (0+255),w,b
   820  007802  19B0               	xorwf	_milliseconds& (0+255),w,b
   821  007804  E10D               	bnz	u1861
   822  007806  51BF               	movf	(main@stopper+1)& (0+255),w,b
   823  007808  19B1               	xorwf	(_milliseconds+1)& (0+255),w,b
   824  00780A  E10A               	bnz	u1861
   825  00780C  51C0               	movf	(main@stopper+2)& (0+255),w,b
   826  00780E  19B2               	xorwf	(_milliseconds+2)& (0+255),w,b
   827  007810  E107               	bnz	u1861
   828  007812  51C1               	movf	(main@stopper+3)& (0+255),w,b
   829  007814  19B3               	xorwf	(_milliseconds+3)& (0+255),w,b
   830  007816  A4D8               	btfss	status,2,c
   831  007818  EF10  F03C         	goto	u1861
   832  00781C  EF12  F03C         	goto	u1860
   833  007820                     u1861:
   834  007820  EF02  F03B         	goto	l1896
   835  007824                     u1860:
   836  007824                     
   837                           ; BSR set to: 0
   838                           ;main.c: 185:             milliseconds = 0;
   839  007824  0E00               	movlw	0
   840  007826  6FB0               	movwf	_milliseconds& (0+255),b
   841  007828  0E00               	movlw	0
   842  00782A  6FB1               	movwf	(_milliseconds+1)& (0+255),b
   843  00782C  0E00               	movlw	0
   844  00782E  6FB2               	movwf	(_milliseconds+2)& (0+255),b
   845  007830  0E00               	movlw	0
   846  007832  6FB3               	movwf	(_milliseconds+3)& (0+255),b
   847  007834  EF02  F03B         	goto	l1896
   848  007838  EF00  F010         	goto	start
   849  00783C                     __end_of_main:
   850                           	callstack 0
   851                           
   852 ;; *************** function _oneShot *****************
   853 ;; Defined at:
   854 ;;		line 40 in file "main.c"
   855 ;; Parameters:    Size  Location     Type
   856 ;;  precond         2   24[COMRAM] int 
   857 ;;  OSR             2   26[COMRAM] int 
   858 ;; Auto vars:     Size  Location     Type
   859 ;;		None
   860 ;; Return value:  Size  Location     Type
   861 ;;                  2   24[COMRAM] int 
   862 ;; Registers used:
   863 ;;		wreg, fsr2l, fsr2h, status,2, status,0
   864 ;; Tracked objects:
   865 ;;		On entry : 0/0
   866 ;;		On exit  : 0/0
   867 ;;		Unchanged: 0/0
   868 ;; Data sizes:     COMRAM   BANK0   BANK1   BANK2   BANK3   BANK4   BANK5   BANK6   BANK7
   869 ;;      Params:         4       0       0       0       0       0       0       0       0
   870 ;;      Locals:         0       0       0       0       0       0       0       0       0
   871 ;;      Temps:          2       0       0       0       0       0       0       0       0
   872 ;;      Totals:         6       0       0       0       0       0       0       0       0
   873 ;;Total ram usage:        6 bytes
   874 ;; Hardware stack levels used: 1
   875 ;; This function calls:
   876 ;;		Nothing
   877 ;; This function is called by:
   878 ;;		_main
   879 ;; This function uses a non-reentrant model
   880 ;;
   881                           
   882                           	psect	text1
   883  006E88                     __ptext1:
   884                           	callstack 0
   885  006E88                     _oneShot:
   886                           	callstack 30
   887  006E88                     
   888                           ;main.c: 40: int oneShot(int precond, int OSR);main.c: 41: {;main.c: 43:  if (precond ==
      +                           1 && oneShotBits[OSR] == 0)
   889  006E88  0419               	decf	oneShot@precond^0,w,c
   890  006E8A  101A               	iorwf	(oneShot@precond+1)^0,w,c
   891  006E8C  A4D8               	btfss	status,2,c
   892  006E8E  EF4B  F037         	goto	u1591
   893  006E92  EF4D  F037         	goto	u1590
   894  006E96                     u1591:
   895  006E96  EF72  F037         	goto	l1782
   896  006E9A                     u1590:
   897  006E9A  90D8               	bcf	status,0,c
   898  006E9C  341B               	rlcf	oneShot@OSR^0,w,c
   899  006E9E  6ED9               	movwf	fsr2l,c
   900  006EA0  341C               	rlcf	(oneShot@OSR+1)^0,w,c
   901  006EA2  6EDA               	movwf	fsr2h,c
   902  006EA4  0EA0               	movlw	low _oneShotBits
   903  006EA6  26D9               	addwf	fsr2l,f,c
   904  006EA8  0E00               	movlw	high _oneShotBits
   905  006EAA  22DA               	addwfc	fsr2h,f,c
   906  006EAC  50DE               	movf	postinc2,w,c
   907  006EAE  10DE               	iorwf	postinc2,w,c
   908  006EB0  A4D8               	btfss	status,2,c
   909  006EB2  EF5D  F037         	goto	u1601
   910  006EB6  EF5F  F037         	goto	u1600
   911  006EBA                     u1601:
   912  006EBA  EF72  F037         	goto	l1782
   913  006EBE                     u1600:
   914  006EBE                     
   915                           ;main.c: 44:  {;main.c: 45:   oneShotBits[OSR] = 1;
   916  006EBE  90D8               	bcf	status,0,c
   917  006EC0  341B               	rlcf	oneShot@OSR^0,w,c
   918  006EC2  6ED9               	movwf	fsr2l,c
   919  006EC4  341C               	rlcf	(oneShot@OSR+1)^0,w,c
   920  006EC6  6EDA               	movwf	fsr2h,c
   921  006EC8  0EA0               	movlw	low _oneShotBits
   922  006ECA  26D9               	addwf	fsr2l,f,c
   923  006ECC  0E00               	movlw	high _oneShotBits
   924  006ECE  22DA               	addwfc	fsr2h,f,c
   925  006ED0  0E01               	movlw	1
   926  006ED2  6EDE               	movwf	postinc2,c
   927  006ED4  0E00               	movlw	0
   928  006ED6  6EDD               	movwf	postdec2,c
   929  006ED8                     
   930                           ;main.c: 46:   return 1;
   931  006ED8  0E00               	movlw	0
   932  006EDA  6E1A               	movwf	(?_oneShot+1)^0,c
   933  006EDC  0E01               	movlw	1
   934  006EDE  6E19               	movwf	?_oneShot^0,c
   935  006EE0  EF9E  F037         	goto	l45
   936  006EE4                     l1782:
   937  006EE4  5019               	movf	oneShot@precond^0,w,c
   938  006EE6  101A               	iorwf	(oneShot@precond+1)^0,w,c
   939  006EE8  A4D8               	btfss	status,2,c
   940  006EEA  EF79  F037         	goto	u1611
   941  006EEE  EF7B  F037         	goto	u1610
   942  006EF2                     u1611:
   943  006EF2  EF9A  F037         	goto	l1788
   944  006EF6                     u1610:
   945  006EF6  90D8               	bcf	status,0,c
   946  006EF8  341B               	rlcf	oneShot@OSR^0,w,c
   947  006EFA  6ED9               	movwf	fsr2l,c
   948  006EFC  341C               	rlcf	(oneShot@OSR+1)^0,w,c
   949  006EFE  6EDA               	movwf	fsr2h,c
   950  006F00  0EA0               	movlw	low _oneShotBits
   951  006F02  26D9               	addwf	fsr2l,f,c
   952  006F04  0E00               	movlw	high _oneShotBits
   953  006F06  22DA               	addwfc	fsr2h,f,c
   954  006F08  04DE               	decf	postinc2,w,c
   955  006F0A  10DE               	iorwf	postinc2,w,c
   956  006F0C  A4D8               	btfss	status,2,c
   957  006F0E  EF8B  F037         	goto	u1621
   958  006F12  EF8D  F037         	goto	u1620
   959  006F16                     u1621:
   960  006F16  EF9A  F037         	goto	l1788
   961  006F1A                     u1620:
   962  006F1A                     
   963                           ;main.c: 49:  {;main.c: 50:   oneShotBits[OSR] = 0;
   964  006F1A  90D8               	bcf	status,0,c
   965  006F1C  341B               	rlcf	oneShot@OSR^0,w,c
   966  006F1E  6ED9               	movwf	fsr2l,c
   967  006F20  341C               	rlcf	(oneShot@OSR+1)^0,w,c
   968  006F22  6EDA               	movwf	fsr2h,c
   969  006F24  0EA0               	movlw	low _oneShotBits
   970  006F26  26D9               	addwf	fsr2l,f,c
   971  006F28  0E00               	movlw	high _oneShotBits
   972  006F2A  22DA               	addwfc	fsr2h,f,c
   973  006F2C  0E00               	movlw	0
   974  006F2E  6EDE               	movwf	postinc2,c
   975  006F30  0E00               	movlw	0
   976  006F32  6EDD               	movwf	postdec2,c
   977  006F34                     l1788:
   978                           
   979                           ;main.c: 51:   return 0;
   980  006F34  0E00               	movlw	0
   981  006F36  6E1A               	movwf	(?_oneShot+1)^0,c
   982  006F38  0E00               	movlw	0
   983  006F3A  6E19               	movwf	?_oneShot^0,c
   984  006F3C                     l45:
   985  006F3C  0012               	return		;funcret
   986  006F3E                     __end_of_oneShot:
   987                           	callstack 0
   988                           
   989 ;; *************** function ___llmod *****************
   990 ;; Defined at:
   991 ;;		line 7 in file "C:\Program Files\Microchip\xc8\v2.32\pic\sources\c99\common\llmod.c"
   992 ;; Parameters:    Size  Location     Type
   993 ;;  dividend        4    4[COMRAM] unsigned long 
   994 ;;  divisor         4    8[COMRAM] unsigned long 
   995 ;; Auto vars:     Size  Location     Type
   996 ;;  counter         1   12[COMRAM] unsigned char 
   997 ;; Return value:  Size  Location     Type
   998 ;;                  4    4[COMRAM] unsigned long 
   999 ;; Registers used:
  1000 ;;		wreg, status,2, status,0
  1001 ;; Tracked objects:
  1002 ;;		On entry : 0/0
  1003 ;;		On exit  : 0/0
  1004 ;;		Unchanged: 0/0
  1005 ;; Data sizes:     COMRAM   BANK0   BANK1   BANK2   BANK3   BANK4   BANK5   BANK6   BANK7
  1006 ;;      Params:         8       0       0       0       0       0       0       0       0
  1007 ;;      Locals:         1       0       0       0       0       0       0       0       0
  1008 ;;      Temps:          0       0       0       0       0       0       0       0       0
  1009 ;;      Totals:         9       0       0       0       0       0       0       0       0
  1010 ;;Total ram usage:        9 bytes
  1011 ;; Hardware stack levels used: 1
  1012 ;; This function calls:
  1013 ;;		Nothing
  1014 ;; This function is called by:
  1015 ;;		_main
  1016 ;; This function uses a non-reentrant model
  1017 ;;
  1018                           
  1019                           	psect	text2
  1020  006D4C                     __ptext2:
  1021                           	callstack 0
  1022  006D4C                     ___llmod:
  1023                           	callstack 30
  1024  006D4C  5009               	movf	___llmod@divisor^0,w,c
  1025  006D4E  100A               	iorwf	(___llmod@divisor+1)^0,w,c
  1026  006D50  100B               	iorwf	(___llmod@divisor+2)^0,w,c
  1027  006D52  100C               	iorwf	(___llmod@divisor+3)^0,w,c
  1028  006D54  B4D8               	btfsc	status,2,c
  1029  006D56  EFAF  F036         	goto	u1721
  1030  006D5A  EFB1  F036         	goto	u1720
  1031  006D5E                     u1721:
  1032  006D5E  EFE1  F036         	goto	l521
  1033  006D62                     u1720:
  1034  006D62  0E01               	movlw	1
  1035  006D64  6E0D               	movwf	___llmod@counter^0,c
  1036  006D66  EFBB  F036         	goto	l1876
  1037  006D6A                     l1874:
  1038  006D6A  90D8               	bcf	status,0,c
  1039  006D6C  3609               	rlcf	___llmod@divisor^0,f,c
  1040  006D6E  360A               	rlcf	(___llmod@divisor+1)^0,f,c
  1041  006D70  360B               	rlcf	(___llmod@divisor+2)^0,f,c
  1042  006D72  360C               	rlcf	(___llmod@divisor+3)^0,f,c
  1043  006D74  2A0D               	incf	___llmod@counter^0,f,c
  1044  006D76                     l1876:
  1045  006D76  AE0C               	btfss	(___llmod@divisor+3)^0,7,c
  1046  006D78  EFC0  F036         	goto	u1731
  1047  006D7C  EFC2  F036         	goto	u1730
  1048  006D80                     u1731:
  1049  006D80  EFB5  F036         	goto	l1874
  1050  006D84                     u1730:
  1051  006D84                     l1878:
  1052  006D84  5009               	movf	___llmod@divisor^0,w,c
  1053  006D86  5C05               	subwf	___llmod@dividend^0,w,c
  1054  006D88  500A               	movf	(___llmod@divisor+1)^0,w,c
  1055  006D8A  5806               	subwfb	(___llmod@dividend+1)^0,w,c
  1056  006D8C  500B               	movf	(___llmod@divisor+2)^0,w,c
  1057  006D8E  5807               	subwfb	(___llmod@dividend+2)^0,w,c
  1058  006D90  500C               	movf	(___llmod@divisor+3)^0,w,c
  1059  006D92  5808               	subwfb	(___llmod@dividend+3)^0,w,c
  1060  006D94  A0D8               	btfss	status,0,c
  1061  006D96  EFCF  F036         	goto	u1741
  1062  006D9A  EFD1  F036         	goto	u1740
  1063  006D9E                     u1741:
  1064  006D9E  EFD9  F036         	goto	l1882
  1065  006DA2                     u1740:
  1066  006DA2  5009               	movf	___llmod@divisor^0,w,c
  1067  006DA4  5E05               	subwf	___llmod@dividend^0,f,c
  1068  006DA6  500A               	movf	(___llmod@divisor+1)^0,w,c
  1069  006DA8  5A06               	subwfb	(___llmod@dividend+1)^0,f,c
  1070  006DAA  500B               	movf	(___llmod@divisor+2)^0,w,c
  1071  006DAC  5A07               	subwfb	(___llmod@dividend+2)^0,f,c
  1072  006DAE  500C               	movf	(___llmod@divisor+3)^0,w,c
  1073  006DB0  5A08               	subwfb	(___llmod@dividend+3)^0,f,c
  1074  006DB2                     l1882:
  1075  006DB2  90D8               	bcf	status,0,c
  1076  006DB4  320C               	rrcf	(___llmod@divisor+3)^0,f,c
  1077  006DB6  320B               	rrcf	(___llmod@divisor+2)^0,f,c
  1078  006DB8  320A               	rrcf	(___llmod@divisor+1)^0,f,c
  1079  006DBA  3209               	rrcf	___llmod@divisor^0,f,c
  1080  006DBC  2E0D               	decfsz	___llmod@counter^0,f,c
  1081  006DBE  EFC2  F036         	goto	l1878
  1082  006DC2                     l521:
  1083  006DC2  C005  F005         	movff	___llmod@dividend,?___llmod
  1084  006DC6  C006  F006         	movff	___llmod@dividend+1,?___llmod+1
  1085  006DCA  C007  F007         	movff	___llmod@dividend+2,?___llmod+2
  1086  006DCE  C008  F008         	movff	___llmod@dividend+3,?___llmod+3
  1087  006DD2  0012               	return		;funcret
  1088  006DD4                     __end_of___llmod:
  1089                           	callstack 0
  1090                           
  1091 ;; *************** function _TON *****************
  1092 ;; Defined at:
  1093 ;;		line 61 in file "main.c"
  1094 ;; Parameters:    Size  Location     Type
  1095 ;;  input           2    4[COMRAM] int 
  1096 ;;  preset          2    6[COMRAM] int 
  1097 ;;  timerNumber     2    8[COMRAM] int 
  1098 ;; Auto vars:     Size  Location     Type
  1099 ;;		None
  1100 ;; Return value:  Size  Location     Type
  1101 ;;                  2    4[COMRAM] int 
  1102 ;; Registers used:
  1103 ;;		wreg, fsr2l, fsr2h, status,2, status,0, cstack
  1104 ;; Tracked objects:
  1105 ;;		On entry : 0/0
  1106 ;;		On exit  : 0/0
  1107 ;;		Unchanged: 0/0
  1108 ;; Data sizes:     COMRAM   BANK0   BANK1   BANK2   BANK3   BANK4   BANK5   BANK6   BANK7
  1109 ;;      Params:         6       0       0       0       0       0       0       0       0
  1110 ;;      Locals:         0       0       0       0       0       0       0       0       0
  1111 ;;      Temps:         14       0       0       0       0       0       0       0       0
  1112 ;;      Totals:        20       0       0       0       0       0       0       0       0
  1113 ;;Total ram usage:       20 bytes
  1114 ;; Hardware stack levels used: 1
  1115 ;; Hardware stack levels required when called: 1
  1116 ;; This function calls:
  1117 ;;		_millis
  1118 ;; This function is called by:
  1119 ;;		_main
  1120 ;; This function uses a non-reentrant model
  1121 ;;
  1122                           
  1123                           	psect	text3
  1124  007256                     __ptext3:
  1125                           	callstack 0
  1126  007256                     _TON:
  1127                           	callstack 29
  1128  007256                     
  1129                           ;main.c: 61: int TON(int input, int preset, int timerNumber);main.c: 62: {;main.c: 63:  
      +                          if (input && !timerInSession[timerNumber]) timerTimers[timerNumber] = millis();
  1130  007256  5005               	movf	TON@input^0,w,c
  1131  007258  1006               	iorwf	(TON@input+1)^0,w,c
  1132  00725A  B4D8               	btfsc	status,2,c
  1133  00725C  EF32  F039         	goto	u1631
  1134  007260  EF34  F039         	goto	u1630
  1135  007264                     u1631:
  1136  007264  EF62  F039         	goto	l1804
  1137  007268                     u1630:
  1138  007268  90D8               	bcf	status,0,c
  1139  00726A  3409               	rlcf	TON@timerNumber^0,w,c
  1140  00726C  6ED9               	movwf	fsr2l,c
  1141  00726E  340A               	rlcf	(TON@timerNumber+1)^0,w,c
  1142  007270  6EDA               	movwf	fsr2h,c
  1143  007272  0E90               	movlw	low _timerInSession
  1144  007274  26D9               	addwf	fsr2l,f,c
  1145  007276  0E00               	movlw	high _timerInSession
  1146  007278  22DA               	addwfc	fsr2h,f,c
  1147  00727A  50DE               	movf	postinc2,w,c
  1148  00727C  10DE               	iorwf	postinc2,w,c
  1149  00727E  A4D8               	btfss	status,2,c
  1150  007280  EF44  F039         	goto	u1641
  1151  007284  EF46  F039         	goto	u1640
  1152  007288                     u1641:
  1153  007288  EF62  F039         	goto	l1804
  1154  00728C                     u1640:
  1155  00728C  EC73  F036         	call	_millis	;wreg free
  1156  007290  0E60               	movlw	low _timerTimers
  1157  007292  6E0B               	movwf	??_TON^0,c
  1158  007294  0E00               	movlw	high _timerTimers
  1159  007296  6E0C               	movwf	(??_TON+1)^0,c
  1160  007298  90D8               	bcf	status,0,c
  1161  00729A  3409               	rlcf	TON@timerNumber^0,w,c
  1162  00729C  6ED9               	movwf	fsr2l,c
  1163  00729E  340A               	rlcf	(TON@timerNumber+1)^0,w,c
  1164  0072A0  6EDA               	movwf	fsr2h,c
  1165  0072A2  90D8               	bcf	status,0,c
  1166  0072A4  36D9               	rlcf	fsr2l,f,c
  1167  0072A6  36DA               	rlcf	fsr2h,f,c
  1168  0072A8  500B               	movf	??_TON^0,w,c
  1169  0072AA  26D9               	addwf	fsr2l,f,c
  1170  0072AC  500C               	movf	(??_TON+1)^0,w,c
  1171  0072AE  22DA               	addwfc	fsr2h,f,c
  1172  0072B0  C001  FFDE         	movff	?_millis,postinc2
  1173  0072B4  C002  FFDE         	movff	?_millis+1,postinc2
  1174  0072B8  C003  FFDE         	movff	?_millis+2,postinc2
  1175  0072BC  C004  FFDE         	movff	?_millis+3,postinc2
  1176  0072C0  EFD9  F039         	goto	l1826
  1177  0072C4                     l1804:
  1178  0072C4  5005               	movf	TON@input^0,w,c
  1179  0072C6  1006               	iorwf	(TON@input+1)^0,w,c
  1180  0072C8  B4D8               	btfsc	status,2,c
  1181  0072CA  EF69  F039         	goto	u1651
  1182  0072CE  EF6B  F039         	goto	u1650
  1183  0072D2                     u1651:
  1184  0072D2  EF83  F039         	goto	l1814
  1185  0072D6                     u1650:
  1186  0072D6  90D8               	bcf	status,0,c
  1187  0072D8  3409               	rlcf	TON@timerNumber^0,w,c
  1188  0072DA  6ED9               	movwf	fsr2l,c
  1189  0072DC  340A               	rlcf	(TON@timerNumber+1)^0,w,c
  1190  0072DE  6EDA               	movwf	fsr2h,c
  1191  0072E0  0E80               	movlw	low _timerMemory
  1192  0072E2  26D9               	addwf	fsr2l,f,c
  1193  0072E4  0E00               	movlw	high _timerMemory
  1194  0072E6  22DA               	addwfc	fsr2h,f,c
  1195  0072E8  50DE               	movf	postinc2,w,c
  1196  0072EA  10DE               	iorwf	postinc2,w,c
  1197  0072EC  B4D8               	btfsc	status,2,c
  1198  0072EE  EF7B  F039         	goto	u1661
  1199  0072F2  EF7D  F039         	goto	u1660
  1200  0072F6                     u1661:
  1201  0072F6  EF83  F039         	goto	l1814
  1202  0072FA                     u1660:
  1203  0072FA                     l1808:
  1204  0072FA  0E00               	movlw	0
  1205  0072FC  6E06               	movwf	(?_TON+1)^0,c
  1206  0072FE  0E01               	movlw	1
  1207  007300  6E05               	movwf	?_TON^0,c
  1208  007302  EFF7  F039         	goto	l62
  1209  007306                     l1814:
  1210  007306  5005               	movf	TON@input^0,w,c
  1211  007308  1006               	iorwf	(TON@input+1)^0,w,c
  1212  00730A  B4D8               	btfsc	status,2,c
  1213  00730C  EF8A  F039         	goto	u1671
  1214  007310  EF8C  F039         	goto	u1670
  1215  007314                     u1671:
  1216  007314  EFD9  F039         	goto	l63
  1217  007318                     u1670:
  1218  007318  C007  F00B         	movff	TON@preset,??_TON
  1219  00731C  C008  F00C         	movff	TON@preset+1,??_TON+1
  1220  007320  0E00               	movlw	0
  1221  007322  BE0C               	btfsc	(??_TON+1)^0,7,c
  1222  007324  0EFF               	movlw	255
  1223  007326  6E0D               	movwf	(??_TON+2)^0,c
  1224  007328  6E0E               	movwf	(??_TON+3)^0,c
  1225  00732A  0E60               	movlw	low _timerTimers
  1226  00732C  6E0F               	movwf	(??_TON+4)^0,c
  1227  00732E  0E00               	movlw	high _timerTimers
  1228  007330  6E10               	movwf	(??_TON+5)^0,c
  1229  007332  90D8               	bcf	status,0,c
  1230  007334  3409               	rlcf	TON@timerNumber^0,w,c
  1231  007336  6ED9               	movwf	fsr2l,c
  1232  007338  340A               	rlcf	(TON@timerNumber+1)^0,w,c
  1233  00733A  6EDA               	movwf	fsr2h,c
  1234  00733C  90D8               	bcf	status,0,c
  1235  00733E  36D9               	rlcf	fsr2l,f,c
  1236  007340  36DA               	rlcf	fsr2h,f,c
  1237  007342  500F               	movf	(??_TON+4)^0,w,c
  1238  007344  26D9               	addwf	fsr2l,f,c
  1239  007346  5010               	movf	(??_TON+5)^0,w,c
  1240  007348  22DA               	addwfc	fsr2h,f,c
  1241  00734A  CFDE F011          	movff	postinc2,??_TON+6
  1242  00734E  CFDE F012          	movff	postinc2,??_TON+7
  1243  007352  CFDE F013          	movff	postinc2,??_TON+8
  1244  007356  CFDE F014          	movff	postinc2,??_TON+9
  1245  00735A  EC73  F036         	call	_millis	;wreg free
  1246  00735E  5011               	movf	(??_TON+6)^0,w,c
  1247  007360  5C01               	subwf	?_millis^0,w,c
  1248  007362  6E15               	movwf	(??_TON+10)^0,c
  1249  007364  5012               	movf	(??_TON+7)^0,w,c
  1250  007366  5802               	subwfb	(?_millis+1)^0,w,c
  1251  007368  6E16               	movwf	(??_TON+11)^0,c
  1252  00736A  5013               	movf	(??_TON+8)^0,w,c
  1253  00736C  5803               	subwfb	(?_millis+2)^0,w,c
  1254  00736E  6E17               	movwf	(??_TON+12)^0,c
  1255  007370  5014               	movf	(??_TON+9)^0,w,c
  1256  007372  5804               	subwfb	(?_millis+3)^0,w,c
  1257  007374  6E18               	movwf	(??_TON+13)^0,c
  1258  007376  500B               	movf	??_TON^0,w,c
  1259  007378  5C15               	subwf	(??_TON+10)^0,w,c
  1260  00737A  500C               	movf	(??_TON+1)^0,w,c
  1261  00737C  5816               	subwfb	(??_TON+11)^0,w,c
  1262  00737E  500D               	movf	(??_TON+2)^0,w,c
  1263  007380  5817               	subwfb	(??_TON+12)^0,w,c
  1264  007382  500E               	movf	(??_TON+3)^0,w,c
  1265  007384  5818               	subwfb	(??_TON+13)^0,w,c
  1266  007386  A0D8               	btfss	status,0,c
  1267  007388  EFC8  F039         	goto	u1681
  1268  00738C  EFCA  F039         	goto	u1680
  1269  007390                     u1681:
  1270  007390  EFD9  F039         	goto	l63
  1271  007394                     u1680:
  1272  007394                     
  1273                           ;main.c: 66:  {;main.c: 67:   timerMemory[timerNumber] = 1;
  1274  007394  90D8               	bcf	status,0,c
  1275  007396  3409               	rlcf	TON@timerNumber^0,w,c
  1276  007398  6ED9               	movwf	fsr2l,c
  1277  00739A  340A               	rlcf	(TON@timerNumber+1)^0,w,c
  1278  00739C  6EDA               	movwf	fsr2h,c
  1279  00739E  0E80               	movlw	low _timerMemory
  1280  0073A0  26D9               	addwf	fsr2l,f,c
  1281  0073A2  0E00               	movlw	high _timerMemory
  1282  0073A4  22DA               	addwfc	fsr2h,f,c
  1283  0073A6  0E01               	movlw	1
  1284  0073A8  6EDE               	movwf	postinc2,c
  1285  0073AA  0E00               	movlw	0
  1286  0073AC  6EDD               	movwf	postdec2,c
  1287  0073AE  EF7D  F039         	goto	l1808
  1288  0073B2                     l63:
  1289  0073B2                     l1826:
  1290                           
  1291                           ;main.c: 71:  timerMemory[timerNumber] = 0;
  1292  0073B2  90D8               	bcf	status,0,c
  1293  0073B4  3409               	rlcf	TON@timerNumber^0,w,c
  1294  0073B6  6ED9               	movwf	fsr2l,c
  1295  0073B8  340A               	rlcf	(TON@timerNumber+1)^0,w,c
  1296  0073BA  6EDA               	movwf	fsr2h,c
  1297  0073BC  0E80               	movlw	low _timerMemory
  1298  0073BE  26D9               	addwf	fsr2l,f,c
  1299  0073C0  0E00               	movlw	high _timerMemory
  1300  0073C2  22DA               	addwfc	fsr2h,f,c
  1301  0073C4  0E00               	movlw	0
  1302  0073C6  6EDE               	movwf	postinc2,c
  1303  0073C8  0E00               	movlw	0
  1304  0073CA  6EDD               	movwf	postdec2,c
  1305                           
  1306                           ;main.c: 72:  timerInSession[timerNumber] = input;
  1307  0073CC  90D8               	bcf	status,0,c
  1308  0073CE  3409               	rlcf	TON@timerNumber^0,w,c
  1309  0073D0  6ED9               	movwf	fsr2l,c
  1310  0073D2  340A               	rlcf	(TON@timerNumber+1)^0,w,c
  1311  0073D4  6EDA               	movwf	fsr2h,c
  1312  0073D6  0E90               	movlw	low _timerInSession
  1313  0073D8  26D9               	addwf	fsr2l,f,c
  1314  0073DA  0E00               	movlw	high _timerInSession
  1315  0073DC  22DA               	addwfc	fsr2h,f,c
  1316  0073DE  C005  FFDE         	movff	TON@input,postinc2
  1317  0073E2  C006  FFDD         	movff	TON@input+1,postdec2
  1318  0073E6                     
  1319                           ;main.c: 73:  return 0;
  1320  0073E6  0E00               	movlw	0
  1321  0073E8  6E06               	movwf	(?_TON+1)^0,c
  1322  0073EA  0E00               	movlw	0
  1323  0073EC  6E05               	movwf	?_TON^0,c
  1324  0073EE                     l62:
  1325  0073EE  0012               	return		;funcret
  1326  0073F0                     __end_of_TON:
  1327                           	callstack 0
  1328                           
  1329 ;; *************** function _millis *****************
  1330 ;; Defined at:
  1331 ;;		line 20 in file "main.c"
  1332 ;; Parameters:    Size  Location     Type
  1333 ;;		None
  1334 ;; Auto vars:     Size  Location     Type
  1335 ;;		None
  1336 ;; Return value:  Size  Location     Type
  1337 ;;                  4    0[COMRAM] unsigned long 
  1338 ;; Registers used:
  1339 ;;		None
  1340 ;; Tracked objects:
  1341 ;;		On entry : 0/0
  1342 ;;		On exit  : 0/0
  1343 ;;		Unchanged: 0/0
  1344 ;; Data sizes:     COMRAM   BANK0   BANK1   BANK2   BANK3   BANK4   BANK5   BANK6   BANK7
  1345 ;;      Params:         4       0       0       0       0       0       0       0       0
  1346 ;;      Locals:         0       0       0       0       0       0       0       0       0
  1347 ;;      Temps:          0       0       0       0       0       0       0       0       0
  1348 ;;      Totals:         4       0       0       0       0       0       0       0       0
  1349 ;;Total ram usage:        4 bytes
  1350 ;; Hardware stack levels used: 1
  1351 ;; This function calls:
  1352 ;;		Nothing
  1353 ;; This function is called by:
  1354 ;;		_TON
  1355 ;;		_main
  1356 ;; This function uses a non-reentrant model
  1357 ;;
  1358                           
  1359                           	psect	text4
  1360  006CE6                     __ptext4:
  1361                           	callstack 0
  1362  006CE6                     _millis:
  1363                           	callstack 30
  1364  006CE6  C0B0  F001         	movff	_milliseconds,?_millis
  1365  006CEA  C0B1  F002         	movff	_milliseconds+1,?_millis+1
  1366  006CEE  C0B2  F003         	movff	_milliseconds+2,?_millis+2
  1367  006CF2  C0B3  F004         	movff	_milliseconds+3,?_millis+3
  1368  006CF6  0012               	return		;funcret
  1369  006CF8                     __end_of_millis:
  1370                           	callstack 0
  1371                           
  1372 ;; *************** function _PWM_Initialize *****************
  1373 ;; Defined at:
  1374 ;;		line 80 in file "main.c"
  1375 ;; Parameters:    Size  Location     Type
  1376 ;;		None
  1377 ;; Auto vars:     Size  Location     Type
  1378 ;;		None
  1379 ;; Return value:  Size  Location     Type
  1380 ;;                  2   71[None  ] int 
  1381 ;; Registers used:
  1382 ;;		wreg, status,2, status,0, prodl, prodh, cstack
  1383 ;; Tracked objects:
  1384 ;;		On entry : 0/0
  1385 ;;		On exit  : 0/0
  1386 ;;		Unchanged: 0/0
  1387 ;; Data sizes:     COMRAM   BANK0   BANK1   BANK2   BANK3   BANK4   BANK5   BANK6   BANK7
  1388 ;;      Params:         0       0       0       0       0       0       0       0       0
  1389 ;;      Locals:         0       0       0       0       0       0       0       0       0
  1390 ;;      Temps:          2       0       0       0       0       0       0       0       0
  1391 ;;      Totals:         2       0       0       0       0       0       0       0       0
  1392 ;;Total ram usage:        2 bytes
  1393 ;; Hardware stack levels used: 1
  1394 ;; Hardware stack levels required when called: 1
  1395 ;; This function calls:
  1396 ;;		___aldiv
  1397 ;;		___wmul
  1398 ;; This function is called by:
  1399 ;;		_main
  1400 ;; This function uses a non-reentrant model
  1401 ;;
  1402                           
  1403                           	psect	text5
  1404  006DD4                     __ptext5:
  1405                           	callstack 0
  1406  006DD4                     _PWM_Initialize:
  1407                           	callstack 29
  1408  006DD4                     
  1409                           ;main.c: 82:     switch(T2CON & 3){
  1410  006DD4  EF01  F037         	goto	l1840
  1411  006DD8                     l1834:
  1412                           
  1413                           ;main.c: 84:             TMR2PRESCALE = 1;
  1414  006DD8  0E00               	movlw	0
  1415  006DDA  0100               	movlb	0	; () banked
  1416  006DDC  6FB5               	movwf	(_TMR2PRESCALE+1)& (0+255),b
  1417  006DDE  0E01               	movlw	1
  1418  006DE0  6FB4               	movwf	_TMR2PRESCALE& (0+255),b
  1419                           
  1420                           ;main.c: 85:             break;
  1421  006DE2  EF17  F037         	goto	l1842
  1422  006DE6                     l1836:
  1423                           
  1424                           ;main.c: 87:             TMR2PRESCALE = 4;
  1425  006DE6  0E00               	movlw	0
  1426  006DE8  0100               	movlb	0	; () banked
  1427  006DEA  6FB5               	movwf	(_TMR2PRESCALE+1)& (0+255),b
  1428  006DEC  0E04               	movlw	4
  1429  006DEE  6FB4               	movwf	_TMR2PRESCALE& (0+255),b
  1430                           
  1431                           ;main.c: 88:             break;
  1432  006DF0  EF17  F037         	goto	l1842
  1433  006DF4                     l1838:
  1434                           
  1435                           ;main.c: 90:             TMR2PRESCALE = 16;
  1436  006DF4  0E00               	movlw	0
  1437  006DF6  0100               	movlb	0	; () banked
  1438  006DF8  6FB5               	movwf	(_TMR2PRESCALE+1)& (0+255),b
  1439  006DFA  0E10               	movlw	16
  1440  006DFC  6FB4               	movwf	_TMR2PRESCALE& (0+255),b
  1441                           
  1442                           ;main.c: 91:     }
  1443  006DFE  EF17  F037         	goto	l1842
  1444  006E02                     l1840:
  1445  006E02  50BA               	movf	186,w,c	;volatile
  1446  006E04  0B03               	andlw	3
  1447  006E06  6E15               	movwf	??_PWM_Initialize^0,c
  1448  006E08  6A16               	clrf	(??_PWM_Initialize+1)^0,c
  1449                           
  1450                           ; Switch on 2 bytes has been partitioned into a top level switch of size 1, and 1 sub-sw
      +                          itches
  1451                           ; Switch size 1, requested type "simple"
  1452                           ; Number of cases is 1, Range of values is 0 to 0
  1453                           ; switch strategies available:
  1454                           ; Name         Instructions Cycles
  1455                           ; simple_byte            4     3 (average)
  1456                           ;	Chosen strategy is simple_byte
  1457  006E0A  5016               	movf	(??_PWM_Initialize+1)^0,w,c
  1458  006E0C  0A00               	xorlw	0	; case 0
  1459  006E0E  B4D8               	btfsc	status,2,c
  1460  006E10  EF0C  F037         	goto	l1962
  1461  006E14  EFFA  F036         	goto	l1838
  1462  006E18                     l1962:
  1463                           
  1464                           ; Switch size 1, requested type "simple"
  1465                           ; Number of cases is 2, Range of values is 0 to 1
  1466                           ; switch strategies available:
  1467                           ; Name         Instructions Cycles
  1468                           ; simple_byte            7     4 (average)
  1469                           ;	Chosen strategy is simple_byte
  1470  006E18  5015               	movf	??_PWM_Initialize^0,w,c
  1471  006E1A  0A00               	xorlw	0	; case 0
  1472  006E1C  B4D8               	btfsc	status,2,c
  1473  006E1E  EFEC  F036         	goto	l1834
  1474  006E22  0A01               	xorlw	1	; case 1
  1475  006E24  B4D8               	btfsc	status,2,c
  1476  006E26  EFF3  F036         	goto	l1836
  1477  006E2A  EFFA  F036         	goto	l1838
  1478  006E2E                     l1842:
  1479                           
  1480                           ; BSR set to: 0
  1481                           ;main.c: 92:   PR2 = (48000000/(PWM_freq*4*TMR2PRESCALE)) - 1;
  1482  006E2E  0E00               	movlw	0
  1483  006E30  6E07               	movwf	___aldiv@dividend^0,c
  1484  006E32  0E6C               	movlw	108
  1485  006E34  6E08               	movwf	(___aldiv@dividend+1)^0,c
  1486  006E36  0EDC               	movlw	220
  1487  006E38  6E09               	movwf	(___aldiv@dividend+2)^0,c
  1488  006E3A  0E02               	movlw	2
  1489  006E3C  6E0A               	movwf	(___aldiv@dividend+3)^0,c
  1490  006E3E  C0CA  F015         	movff	_PWM_freq,??_PWM_Initialize
  1491  006E42  C0CB  F016         	movff	_PWM_freq+1,??_PWM_Initialize+1
  1492  006E46  90D8               	bcf	status,0,c
  1493  006E48  3615               	rlcf	??_PWM_Initialize^0,f,c
  1494  006E4A  3616               	rlcf	(??_PWM_Initialize+1)^0,f,c
  1495  006E4C  90D8               	bcf	status,0,c
  1496  006E4E  3615               	rlcf	??_PWM_Initialize^0,f,c
  1497  006E50  3616               	rlcf	(??_PWM_Initialize+1)^0,f,c
  1498  006E52  C015  F001         	movff	??_PWM_Initialize,___wmul@multiplier
  1499  006E56  C016  F002         	movff	??_PWM_Initialize+1,___wmul@multiplier+1
  1500  006E5A  C0B4  F003         	movff	_TMR2PRESCALE,___wmul@multiplicand
  1501  006E5E  C0B5  F004         	movff	_TMR2PRESCALE+1,___wmul@multiplicand+1
  1502  006E62  EC7C  F036         	call	___wmul	;wreg free
  1503  006E66  C001  F00B         	movff	?___wmul,___aldiv@divisor
  1504  006E6A  C002  F00C         	movff	?___wmul+1,___aldiv@divisor+1
  1505  006E6E  6A0D               	clrf	(___aldiv@divisor+2)^0,c
  1506  006E70  6A0E               	clrf	(___aldiv@divisor+3)^0,c
  1507  006E72  ECA5  F038         	call	___aldiv	;wreg free
  1508  006E76  0407               	decf	?___aldiv^0,w,c
  1509  006E78  6EBB               	movwf	187,c	;volatile
  1510  006E7A                     
  1511                           ;main.c: 93:     CCP1M3 = 1; CCP1M2 = 1;
  1512  006E7A  86BD               	bsf	4029,3,c	;volatile
  1513  006E7C  84BD               	bsf	4029,2,c	;volatile
  1514  006E7E                     
  1515                           ;main.c: 94:     T2CKPS0 = 1;T2CKPS1 = 0; TMR2ON = 1;
  1516  006E7E  80BA               	bsf	4026,0,c	;volatile
  1517  006E80  92BA               	bcf	4026,1,c	;volatile
  1518  006E82  84BA               	bsf	4026,2,c	;volatile
  1519  006E84                     
  1520                           ;main.c: 95:     TRISC2 = 0;
  1521  006E84  9494               	bcf	3988,2,c	;volatile
  1522  006E86  0012               	return		;funcret
  1523  006E88                     __end_of_PWM_Initialize:
  1524                           	callstack 0
  1525                           
  1526 ;; *************** function _PWM_Duty *****************
  1527 ;; Defined at:
  1528 ;;		line 98 in file "main.c"
  1529 ;; Parameters:    Size  Location     Type
  1530 ;;  duty            2    0[BANK0 ] unsigned int 
  1531 ;; Auto vars:     Size  Location     Type
  1532 ;;		None
  1533 ;; Return value:  Size  Location     Type
  1534 ;;                  2    0[BANK0 ] int 
  1535 ;; Registers used:
  1536 ;;		wreg, status,2, status,0, prodl, prodh, cstack
  1537 ;; Tracked objects:
  1538 ;;		On entry : 0/0
  1539 ;;		On exit  : 0/0
  1540 ;;		Unchanged: 0/0
  1541 ;; Data sizes:     COMRAM   BANK0   BANK1   BANK2   BANK3   BANK4   BANK5   BANK6   BANK7
  1542 ;;      Params:         0       2       0       0       0       0       0       0       0
  1543 ;;      Locals:         0       0       0       0       0       0       0       0       0
  1544 ;;      Temps:          0       2       0       0       0       0       0       0       0
  1545 ;;      Totals:         0       4       0       0       0       0       0       0       0
  1546 ;;Total ram usage:        4 bytes
  1547 ;; Hardware stack levels used: 1
  1548 ;; Hardware stack levels required when called: 1
  1549 ;; This function calls:
  1550 ;;		___aldiv
  1551 ;;		___fldiv
  1552 ;;		___flmul
  1553 ;;		___fltol
  1554 ;;		___wmul
  1555 ;;		___xxtofl
  1556 ;; This function is called by:
  1557 ;;		_main
  1558 ;; This function uses a non-reentrant model
  1559 ;;
  1560                           
  1561                           	psect	text6
  1562  007044                     __ptext6:
  1563                           	callstack 0
  1564  007044                     _PWM_Duty:
  1565                           	callstack 29
  1566  007044                     
  1567                           ;main.c: 98: PWM_Duty(unsigned int duty);main.c: 99: {;main.c: 100:   if(duty<1024)
  1568  007044  0E04               	movlw	4
  1569  007046  0100               	movlb	0	; () banked
  1570  007048  5DBB               	subwf	(PWM_Duty@duty+1)& (0+255),w,b
  1571  00704A  B0D8               	btfsc	status,0,c
  1572  00704C  EF2A  F038         	goto	u1691
  1573  007050  EF2C  F038         	goto	u1690
  1574  007054                     u1691:
  1575  007054  EFA4  F038         	goto	l81
  1576  007058                     u1690:
  1577  007058                     
  1578                           ; BSR set to: 0
  1579                           ;main.c: 101:   {;main.c: 103:     duty = ((float)duty/1023)*(48000000/(PWM_freq*TMR2PRE
      +                          SCALE));
  1580  007058  C0B4  F003         	movff	_TMR2PRESCALE,___wmul@multiplicand
  1581  00705C  C0B5  F004         	movff	_TMR2PRESCALE+1,___wmul@multiplicand+1
  1582  007060  C0CA  F001         	movff	_PWM_freq,___wmul@multiplier
  1583  007064  C0CB  F002         	movff	_PWM_freq+1,___wmul@multiplier+1
  1584  007068  EC7C  F036         	call	___wmul	;wreg free
  1585  00706C  C001  F00B         	movff	?___wmul,___aldiv@divisor
  1586  007070  C002  F00C         	movff	?___wmul+1,___aldiv@divisor+1
  1587  007074  6A0D               	clrf	(___aldiv@divisor+2)^0,c
  1588  007076  6A0E               	clrf	(___aldiv@divisor+3)^0,c
  1589  007078  0E00               	movlw	0
  1590  00707A  6E07               	movwf	___aldiv@dividend^0,c
  1591  00707C  0E6C               	movlw	108
  1592  00707E  6E08               	movwf	(___aldiv@dividend+1)^0,c
  1593  007080  0EDC               	movlw	220
  1594  007082  6E09               	movwf	(___aldiv@dividend+2)^0,c
  1595  007084  0E02               	movlw	2
  1596  007086  6E0A               	movwf	(___aldiv@dividend+3)^0,c
  1597  007088  ECA5  F038         	call	___aldiv	;wreg free
  1598  00708C  C007  F015         	movff	?___aldiv,___xxtofl@val
  1599  007090  C008  F016         	movff	?___aldiv+1,___xxtofl@val+1
  1600  007094  C009  F017         	movff	?___aldiv+2,___xxtofl@val+2
  1601  007098  C00A  F018         	movff	?___aldiv+3,___xxtofl@val+3
  1602  00709C  0E01               	movlw	1
  1603  00709E  ECF8  F039         	call	___xxtofl
  1604  0070A2  C015  F040         	movff	?___xxtofl,___flmul@a
  1605  0070A6  C016  F041         	movff	?___xxtofl+1,___flmul@a+1
  1606  0070AA  C017  F042         	movff	?___xxtofl+2,___flmul@a+2
  1607  0070AE  C018  F043         	movff	?___xxtofl+3,___flmul@a+3
  1608  0070B2  0E00               	movlw	0
  1609  0070B4  6E27               	movwf	___fldiv@a^0,c
  1610  0070B6  0EC0               	movlw	192
  1611  0070B8  6E28               	movwf	(___fldiv@a+1)^0,c
  1612  0070BA  0E7F               	movlw	127
  1613  0070BC  6E29               	movwf	(___fldiv@a+2)^0,c
  1614  0070BE  0E44               	movlw	68
  1615  0070C0  6E2A               	movwf	(___fldiv@a+3)^0,c
  1616  0070C2  C0BA  F015         	movff	PWM_Duty@duty,___xxtofl@val
  1617  0070C6  C0BB  F016         	movff	PWM_Duty@duty+1,___xxtofl@val+1
  1618  0070CA  6A17               	clrf	(___xxtofl@val+2)^0,c
  1619  0070CC  6A18               	clrf	(___xxtofl@val+3)^0,c
  1620  0070CE  0E00               	movlw	0
  1621  0070D0  ECF8  F039         	call	___xxtofl
  1622  0070D4  C015  F023         	movff	?___xxtofl,___fldiv@b
  1623  0070D8  C016  F024         	movff	?___xxtofl+1,___fldiv@b+1
  1624  0070DC  C017  F025         	movff	?___xxtofl+2,___fldiv@b+2
  1625  0070E0  C018  F026         	movff	?___xxtofl+3,___fldiv@b+3
  1626  0070E4  EC1E  F03C         	call	___fldiv	;wreg free
  1627  0070E8  C023  F03C         	movff	?___fldiv,___flmul@b
  1628  0070EC  C024  F03D         	movff	?___fldiv+1,___flmul@b+1
  1629  0070F0  C025  F03E         	movff	?___fldiv+2,___flmul@b+2
  1630  0070F4  C026  F03F         	movff	?___fldiv+3,___flmul@b+3
  1631  0070F8  ECEB  F03D         	call	___flmul	;wreg free
  1632  0070FC  C03C  F055         	movff	?___flmul,___fltol@f1
  1633  007100  C03D  F056         	movff	?___flmul+1,___fltol@f1+1
  1634  007104  C03E  F057         	movff	?___flmul+2,___fltol@f1+2
  1635  007108  C03F  F058         	movff	?___flmul+3,___fltol@f1+3
  1636  00710C  EC9F  F037         	call	___fltol	;wreg free
  1637  007110  C055  F0BA         	movff	?___fltol,PWM_Duty@duty
  1638  007114  C056  F0BB         	movff	?___fltol+1,PWM_Duty@duty+1
  1639  007118                     
  1640                           ;main.c: 104:     CCP1X = duty & 1;
  1641  007118  0100               	movlb	0	; () banked
  1642  00711A  B1BA               	btfsc	PWM_Duty@duty& (0+255),0,b
  1643  00711C  EF92  F038         	goto	u1701
  1644  007120  EF95  F038         	goto	u1700
  1645  007124                     u1701:
  1646  007124  8ABD               	bsf	4029,5,c	;volatile
  1647  007126  EF96  F038         	goto	u1715
  1648  00712A                     u1700:
  1649  00712A  9ABD               	bcf	4029,5,c	;volatile
  1650  00712C                     u1715:
  1651  00712C                     
  1652                           ;main.c: 105:     CCP1Y = duty & 2;
  1653  00712C  98BD               	bcf	4029,4,c	;volatile
  1654  00712E                     
  1655                           ;main.c: 106:     CCPR1L = duty>>2;
  1656  00712E  C0BA  F0BC         	movff	PWM_Duty@duty,??_PWM_Duty
  1657  007132  C0BB  F0BD         	movff	PWM_Duty@duty+1,??_PWM_Duty+1
  1658  007136  0100               	movlb	0	; () banked
  1659  007138  90D8               	bcf	status,0,c
  1660  00713A  33BD               	rrcf	(??_PWM_Duty+1)& (0+255),f,b
  1661  00713C  33BC               	rrcf	??_PWM_Duty& (0+255),f,b
  1662  00713E  90D8               	bcf	status,0,c
  1663  007140  33BD               	rrcf	(??_PWM_Duty+1)& (0+255),f,b
  1664  007142  33BC               	rrcf	??_PWM_Duty& (0+255),f,b
  1665  007144  51BC               	movf	??_PWM_Duty& (0+255),w,b
  1666  007146  6EBE               	movwf	190,c	;volatile
  1667  007148                     l81:
  1668                           
  1669                           ; BSR set to: 0
  1670  007148  0012               	return		;funcret
  1671  00714A                     __end_of_PWM_Duty:
  1672                           	callstack 0
  1673                           
  1674 ;; *************** function ___xxtofl *****************
  1675 ;; Defined at:
  1676 ;;		line 10 in file "C:\Program Files\Microchip\xc8\v2.32\pic\sources\c99\common\xxtofl.c"
  1677 ;; Parameters:    Size  Location     Type
  1678 ;;  sign            1    wreg     unsigned char 
  1679 ;;  val             4   20[COMRAM] long 
  1680 ;; Auto vars:     Size  Location     Type
  1681 ;;  sign            1   28[COMRAM] unsigned char 
  1682 ;;  arg             4   30[COMRAM] unsigned long 
  1683 ;;  exp             1   29[COMRAM] unsigned char 
  1684 ;; Return value:  Size  Location     Type
  1685 ;;                  4   20[COMRAM] unsigned char 
  1686 ;; Registers used:
  1687 ;;		wreg, status,2, status,0
  1688 ;; Tracked objects:
  1689 ;;		On entry : 0/0
  1690 ;;		On exit  : 0/0
  1691 ;;		Unchanged: 0/0
  1692 ;; Data sizes:     COMRAM   BANK0   BANK1   BANK2   BANK3   BANK4   BANK5   BANK6   BANK7
  1693 ;;      Params:         4       0       0       0       0       0       0       0       0
  1694 ;;      Locals:         6       0       0       0       0       0       0       0       0
  1695 ;;      Temps:          4       0       0       0       0       0       0       0       0
  1696 ;;      Totals:        14       0       0       0       0       0       0       0       0
  1697 ;;Total ram usage:       14 bytes
  1698 ;; Hardware stack levels used: 1
  1699 ;; This function calls:
  1700 ;;		Nothing
  1701 ;; This function is called by:
  1702 ;;		_PWM_Duty
  1703 ;; This function uses a non-reentrant model
  1704 ;;
  1705                           
  1706                           	psect	text7
  1707  0073F0                     __ptext7:
  1708                           	callstack 0
  1709  0073F0                     ___xxtofl:
  1710                           	callstack 29
  1711                           
  1712                           ; BSR set to: 0
  1713                           ;incstack = 0
  1714                           ;___xxtofl@sign stored from wreg
  1715  0073F0  6E1D               	movwf	___xxtofl@sign^0,c
  1716  0073F2  501D               	movf	___xxtofl@sign^0,w,c
  1717  0073F4  B4D8               	btfsc	status,2,c
  1718  0073F6  EFFF  F039         	goto	u1491
  1719  0073FA  EF01  F03A         	goto	u1490
  1720  0073FE                     u1491:
  1721  0073FE  EF23  F03A         	goto	l756
  1722  007402                     u1490:
  1723  007402  BE18               	btfsc	(___xxtofl@val+3)^0,7,c
  1724  007404  EF08  F03A         	goto	u1500
  1725  007408  EF06  F03A         	goto	u1501
  1726  00740C                     u1501:
  1727  00740C  EF23  F03A         	goto	l756
  1728  007410                     u1500:
  1729  007410  C015  F019         	movff	___xxtofl@val,??___xxtofl
  1730  007414  C016  F01A         	movff	___xxtofl@val+1,??___xxtofl+1
  1731  007418  C017  F01B         	movff	___xxtofl@val+2,??___xxtofl+2
  1732  00741C  C018  F01C         	movff	___xxtofl@val+3,??___xxtofl+3
  1733  007420  1E19               	comf	??___xxtofl^0,f,c
  1734  007422  1E1A               	comf	(??___xxtofl+1)^0,f,c
  1735  007424  1E1B               	comf	(??___xxtofl+2)^0,f,c
  1736  007426  1E1C               	comf	(??___xxtofl+3)^0,f,c
  1737  007428  2A19               	incf	??___xxtofl^0,f,c
  1738  00742A  0E00               	movlw	0
  1739  00742C  221A               	addwfc	(??___xxtofl+1)^0,f,c
  1740  00742E  221B               	addwfc	(??___xxtofl+2)^0,f,c
  1741  007430  221C               	addwfc	(??___xxtofl+3)^0,f,c
  1742  007432  C019  F01F         	movff	??___xxtofl,___xxtofl@arg
  1743  007436  C01A  F020         	movff	??___xxtofl+1,___xxtofl@arg+1
  1744  00743A  C01B  F021         	movff	??___xxtofl+2,___xxtofl@arg+2
  1745  00743E  C01C  F022         	movff	??___xxtofl+3,___xxtofl@arg+3
  1746  007442  EF2B  F03A         	goto	l1730
  1747  007446                     l756:
  1748  007446  C015  F01F         	movff	___xxtofl@val,___xxtofl@arg
  1749  00744A  C016  F020         	movff	___xxtofl@val+1,___xxtofl@arg+1
  1750  00744E  C017  F021         	movff	___xxtofl@val+2,___xxtofl@arg+2
  1751  007452  C018  F022         	movff	___xxtofl@val+3,___xxtofl@arg+3
  1752  007456                     l1730:
  1753  007456  5015               	movf	___xxtofl@val^0,w,c
  1754  007458  1016               	iorwf	(___xxtofl@val+1)^0,w,c
  1755  00745A  1017               	iorwf	(___xxtofl@val+2)^0,w,c
  1756  00745C  1018               	iorwf	(___xxtofl@val+3)^0,w,c
  1757  00745E  A4D8               	btfss	status,2,c
  1758  007460  EF34  F03A         	goto	u1511
  1759  007464  EF36  F03A         	goto	u1510
  1760  007468                     u1511:
  1761  007468  EF40  F03A         	goto	l1736
  1762  00746C                     u1510:
  1763  00746C  0E00               	movlw	0
  1764  00746E  6E15               	movwf	?___xxtofl^0,c
  1765  007470  0E00               	movlw	0
  1766  007472  6E16               	movwf	(?___xxtofl+1)^0,c
  1767  007474  0E00               	movlw	0
  1768  007476  6E17               	movwf	(?___xxtofl+2)^0,c
  1769  007478  0E00               	movlw	0
  1770  00747A  6E18               	movwf	(?___xxtofl+3)^0,c
  1771  00747C  EFD1  F03A         	goto	l759
  1772  007480                     l1736:
  1773  007480  0E96               	movlw	150
  1774  007482  6E1E               	movwf	___xxtofl@exp^0,c
  1775  007484  EF4A  F03A         	goto	l1740
  1776  007488                     l1738:
  1777  007488  2A1E               	incf	___xxtofl@exp^0,f,c
  1778  00748A  90D8               	bcf	status,0,c
  1779  00748C  3222               	rrcf	(___xxtofl@arg+3)^0,f,c
  1780  00748E  3221               	rrcf	(___xxtofl@arg+2)^0,f,c
  1781  007490  3220               	rrcf	(___xxtofl@arg+1)^0,f,c
  1782  007492  321F               	rrcf	___xxtofl@arg^0,f,c
  1783  007494                     l1740:
  1784  007494  0E00               	movlw	0
  1785  007496  141F               	andwf	___xxtofl@arg^0,w,c
  1786  007498  6E19               	movwf	??___xxtofl^0,c
  1787  00749A  0E00               	movlw	0
  1788  00749C  1420               	andwf	(___xxtofl@arg+1)^0,w,c
  1789  00749E  6E1A               	movwf	(??___xxtofl+1)^0,c
  1790  0074A0  0E00               	movlw	0
  1791  0074A2  1421               	andwf	(___xxtofl@arg+2)^0,w,c
  1792  0074A4  6E1B               	movwf	(??___xxtofl+2)^0,c
  1793  0074A6  0EFE               	movlw	254
  1794  0074A8  1422               	andwf	(___xxtofl@arg+3)^0,w,c
  1795  0074AA  6E1C               	movwf	(??___xxtofl+3)^0,c
  1796  0074AC  5019               	movf	??___xxtofl^0,w,c
  1797  0074AE  101A               	iorwf	(??___xxtofl+1)^0,w,c
  1798  0074B0  101B               	iorwf	(??___xxtofl+2)^0,w,c
  1799  0074B2  101C               	iorwf	(??___xxtofl+3)^0,w,c
  1800  0074B4  A4D8               	btfss	status,2,c
  1801  0074B6  EF5F  F03A         	goto	u1521
  1802  0074BA  EF61  F03A         	goto	u1520
  1803  0074BE                     u1521:
  1804  0074BE  EF44  F03A         	goto	l1738
  1805  0074C2                     u1520:
  1806  0074C2  EF6F  F03A         	goto	l763
  1807  0074C6                     l1742:
  1808  0074C6  2A1E               	incf	___xxtofl@exp^0,f,c
  1809  0074C8  0E01               	movlw	1
  1810  0074CA  261F               	addwf	___xxtofl@arg^0,f,c
  1811  0074CC  0E00               	movlw	0
  1812  0074CE  2220               	addwfc	(___xxtofl@arg+1)^0,f,c
  1813  0074D0  2221               	addwfc	(___xxtofl@arg+2)^0,f,c
  1814  0074D2  2222               	addwfc	(___xxtofl@arg+3)^0,f,c
  1815  0074D4  90D8               	bcf	status,0,c
  1816  0074D6  3222               	rrcf	(___xxtofl@arg+3)^0,f,c
  1817  0074D8  3221               	rrcf	(___xxtofl@arg+2)^0,f,c
  1818  0074DA  3220               	rrcf	(___xxtofl@arg+1)^0,f,c
  1819  0074DC  321F               	rrcf	___xxtofl@arg^0,f,c
  1820  0074DE                     l763:
  1821  0074DE  0E00               	movlw	0
  1822  0074E0  141F               	andwf	___xxtofl@arg^0,w,c
  1823  0074E2  6E19               	movwf	??___xxtofl^0,c
  1824  0074E4  0E00               	movlw	0
  1825  0074E6  1420               	andwf	(___xxtofl@arg+1)^0,w,c
  1826  0074E8  6E1A               	movwf	(??___xxtofl+1)^0,c
  1827  0074EA  0E00               	movlw	0
  1828  0074EC  1421               	andwf	(___xxtofl@arg+2)^0,w,c
  1829  0074EE  6E1B               	movwf	(??___xxtofl+2)^0,c
  1830  0074F0  0EFF               	movlw	255
  1831  0074F2  1422               	andwf	(___xxtofl@arg+3)^0,w,c
  1832  0074F4  6E1C               	movwf	(??___xxtofl+3)^0,c
  1833  0074F6  5019               	movf	??___xxtofl^0,w,c
  1834  0074F8  101A               	iorwf	(??___xxtofl+1)^0,w,c
  1835  0074FA  101B               	iorwf	(??___xxtofl+2)^0,w,c
  1836  0074FC  101C               	iorwf	(??___xxtofl+3)^0,w,c
  1837  0074FE  A4D8               	btfss	status,2,c
  1838  007500  EF84  F03A         	goto	u1531
  1839  007504  EF86  F03A         	goto	u1530
  1840  007508                     u1531:
  1841  007508  EF63  F03A         	goto	l1742
  1842  00750C                     u1530:
  1843  00750C  EF8E  F03A         	goto	l1750
  1844  007510                     l1748:
  1845  007510  061E               	decf	___xxtofl@exp^0,f,c
  1846  007512  90D8               	bcf	status,0,c
  1847  007514  361F               	rlcf	___xxtofl@arg^0,f,c
  1848  007516  3620               	rlcf	(___xxtofl@arg+1)^0,f,c
  1849  007518  3621               	rlcf	(___xxtofl@arg+2)^0,f,c
  1850  00751A  3622               	rlcf	(___xxtofl@arg+3)^0,f,c
  1851  00751C                     l1750:
  1852  00751C  BE21               	btfsc	(___xxtofl@arg+2)^0,7,c
  1853  00751E  EF93  F03A         	goto	u1541
  1854  007522  EF95  F03A         	goto	u1540
  1855  007526                     u1541:
  1856  007526  EF9D  F03A         	goto	l770
  1857  00752A                     u1540:
  1858  00752A  0E02               	movlw	2
  1859  00752C  601E               	cpfslt	___xxtofl@exp^0,c
  1860  00752E  EF9B  F03A         	goto	u1551
  1861  007532  EF9D  F03A         	goto	u1550
  1862  007536                     u1551:
  1863  007536  EF88  F03A         	goto	l1748
  1864  00753A                     u1550:
  1865  00753A                     l770:
  1866  00753A  B01E               	btfsc	___xxtofl@exp^0,0,c
  1867  00753C  EFA2  F03A         	goto	u1561
  1868  007540  EFA4  F03A         	goto	u1560
  1869  007544                     u1561:
  1870  007544  EFA5  F03A         	goto	l1756
  1871  007548                     u1560:
  1872  007548  9E21               	bcf	(___xxtofl@arg+2)^0,7,c
  1873  00754A                     l1756:
  1874  00754A  90D8               	bcf	status,0,c
  1875  00754C  321E               	rrcf	___xxtofl@exp^0,f,c
  1876  00754E  C01E  F019         	movff	___xxtofl@exp,??___xxtofl
  1877  007552  6A1A               	clrf	(??___xxtofl+1)^0,c
  1878  007554  6A1B               	clrf	(??___xxtofl+2)^0,c
  1879  007556  6A1C               	clrf	(??___xxtofl+3)^0,c
  1880  007558  C019  F01C         	movff	??___xxtofl,??___xxtofl+3
  1881  00755C  6A1B               	clrf	(??___xxtofl+2)^0,c
  1882  00755E  6A1A               	clrf	(??___xxtofl+1)^0,c
  1883  007560  6A19               	clrf	??___xxtofl^0,c
  1884  007562  5019               	movf	??___xxtofl^0,w,c
  1885  007564  121F               	iorwf	___xxtofl@arg^0,f,c
  1886  007566  501A               	movf	(??___xxtofl+1)^0,w,c
  1887  007568  1220               	iorwf	(___xxtofl@arg+1)^0,f,c
  1888  00756A  501B               	movf	(??___xxtofl+2)^0,w,c
  1889  00756C  1221               	iorwf	(___xxtofl@arg+2)^0,f,c
  1890  00756E  501C               	movf	(??___xxtofl+3)^0,w,c
  1891  007570  1222               	iorwf	(___xxtofl@arg+3)^0,f,c
  1892  007572  501D               	movf	___xxtofl@sign^0,w,c
  1893  007574  B4D8               	btfsc	status,2,c
  1894  007576  EFBF  F03A         	goto	u1571
  1895  00757A  EFC1  F03A         	goto	u1570
  1896  00757E                     u1571:
  1897  00757E  EFC9  F03A         	goto	l1766
  1898  007582                     u1570:
  1899  007582  BE18               	btfsc	(___xxtofl@val+3)^0,7,c
  1900  007584  EFC8  F03A         	goto	u1580
  1901  007588  EFC6  F03A         	goto	u1581
  1902  00758C                     u1581:
  1903  00758C  EFC9  F03A         	goto	l1766
  1904  007590                     u1580:
  1905  007590  8E22               	bsf	(___xxtofl@arg+3)^0,7,c
  1906  007592                     l1766:
  1907  007592  C01F  F015         	movff	___xxtofl@arg,?___xxtofl
  1908  007596  C020  F016         	movff	___xxtofl@arg+1,?___xxtofl+1
  1909  00759A  C021  F017         	movff	___xxtofl@arg+2,?___xxtofl+2
  1910  00759E  C022  F018         	movff	___xxtofl@arg+3,?___xxtofl+3
  1911  0075A2                     l759:
  1912  0075A2  0012               	return		;funcret
  1913  0075A4                     __end_of___xxtofl:
  1914                           	callstack 0
  1915                           
  1916 ;; *************** function ___wmul *****************
  1917 ;; Defined at:
  1918 ;;		line 15 in file "C:\Program Files\Microchip\xc8\v2.32\pic\sources\c99\common\Umul16.c"
  1919 ;; Parameters:    Size  Location     Type
  1920 ;;  multiplier      2    0[COMRAM] unsigned int 
  1921 ;;  multiplicand    2    2[COMRAM] unsigned int 
  1922 ;; Auto vars:     Size  Location     Type
  1923 ;;  product         2    4[COMRAM] unsigned int 
  1924 ;; Return value:  Size  Location     Type
  1925 ;;                  2    0[COMRAM] unsigned int 
  1926 ;; Registers used:
  1927 ;;		wreg, status,2, status,0, prodl, prodh
  1928 ;; Tracked objects:
  1929 ;;		On entry : 0/0
  1930 ;;		On exit  : 0/0
  1931 ;;		Unchanged: 0/0
  1932 ;; Data sizes:     COMRAM   BANK0   BANK1   BANK2   BANK3   BANK4   BANK5   BANK6   BANK7
  1933 ;;      Params:         4       0       0       0       0       0       0       0       0
  1934 ;;      Locals:         2       0       0       0       0       0       0       0       0
  1935 ;;      Temps:          0       0       0       0       0       0       0       0       0
  1936 ;;      Totals:         6       0       0       0       0       0       0       0       0
  1937 ;;Total ram usage:        6 bytes
  1938 ;; Hardware stack levels used: 1
  1939 ;; This function calls:
  1940 ;;		Nothing
  1941 ;; This function is called by:
  1942 ;;		_PWM_Initialize
  1943 ;;		_PWM_Duty
  1944 ;;		_main
  1945 ;; This function uses a non-reentrant model
  1946 ;;
  1947                           
  1948                           	psect	text8
  1949  006CF8                     __ptext8:
  1950                           	callstack 0
  1951  006CF8                     ___wmul:
  1952                           	callstack 30
  1953  006CF8  5001               	movf	___wmul@multiplier^0,w,c
  1954  006CFA  0203               	mulwf	___wmul@multiplicand^0,c
  1955  006CFC  CFF3 F005          	movff	prodl,___wmul@product
  1956  006D00  CFF4 F006          	movff	prodh,___wmul@product+1
  1957  006D04  5001               	movf	___wmul@multiplier^0,w,c
  1958  006D06  0204               	mulwf	(___wmul@multiplicand+1)^0,c
  1959  006D08  50F3               	movf	243,w,c
  1960  006D0A  2606               	addwf	(___wmul@product+1)^0,f,c
  1961  006D0C  5002               	movf	(___wmul@multiplier+1)^0,w,c
  1962  006D0E  0203               	mulwf	___wmul@multiplicand^0,c
  1963  006D10  50F3               	movf	243,w,c
  1964  006D12  2606               	addwf	(___wmul@product+1)^0,f,c
  1965  006D14  C005  F001         	movff	___wmul@product,?___wmul
  1966  006D18  C006  F002         	movff	___wmul@product+1,?___wmul+1
  1967  006D1C  0012               	return		;funcret
  1968  006D1E                     __end_of___wmul:
  1969                           	callstack 0
  1970                           
  1971 ;; *************** function ___fltol *****************
  1972 ;; Defined at:
  1973 ;;		line 43 in file "C:\Program Files\Microchip\xc8\v2.32\pic\sources\c99\common\fltol.c"
  1974 ;; Parameters:    Size  Location     Type
  1975 ;;  f1              4   84[COMRAM] unsigned int 
  1976 ;; Auto vars:     Size  Location     Type
  1977 ;;  exp1            1   93[COMRAM] unsigned char 
  1978 ;;  sign1           1   92[COMRAM] unsigned char 
  1979 ;; Return value:  Size  Location     Type
  1980 ;;                  4   84[COMRAM] long 
  1981 ;; Registers used:
  1982 ;;		wreg, status,2, status,0
  1983 ;; Tracked objects:
  1984 ;;		On entry : 0/0
  1985 ;;		On exit  : 0/0
  1986 ;;		Unchanged: 0/0
  1987 ;; Data sizes:     COMRAM   BANK0   BANK1   BANK2   BANK3   BANK4   BANK5   BANK6   BANK7
  1988 ;;      Params:         4       0       0       0       0       0       0       0       0
  1989 ;;      Locals:         2       0       0       0       0       0       0       0       0
  1990 ;;      Temps:          4       0       0       0       0       0       0       0       0
  1991 ;;      Totals:        10       0       0       0       0       0       0       0       0
  1992 ;;Total ram usage:       10 bytes
  1993 ;; Hardware stack levels used: 1
  1994 ;; This function calls:
  1995 ;;		Nothing
  1996 ;; This function is called by:
  1997 ;;		_PWM_Duty
  1998 ;; This function uses a non-reentrant model
  1999 ;;
  2000                           
  2001                           	psect	text9
  2002  006F3E                     __ptext9:
  2003                           	callstack 0
  2004  006F3E                     ___fltol:
  2005                           	callstack 29
  2006  006F3E  3457               	rlcf	(___fltol@f1+2)^0,w,c
  2007  006F40  3458               	rlcf	(___fltol@f1+3)^0,w,c
  2008  006F42  6E5E               	movwf	___fltol@exp1^0,c
  2009  006F44  505E               	movf	___fltol@exp1^0,w,c
  2010  006F46  A4D8               	btfss	status,2,c
  2011  006F48  EFA8  F037         	goto	u1421
  2012  006F4C  EFAA  F037         	goto	u1420
  2013  006F50                     u1421:
  2014  006F50  EFB4  F037         	goto	l1686
  2015  006F54                     u1420:
  2016  006F54                     l1682:
  2017  006F54  0E00               	movlw	0
  2018  006F56  6E55               	movwf	?___fltol^0,c
  2019  006F58  0E00               	movlw	0
  2020  006F5A  6E56               	movwf	(?___fltol+1)^0,c
  2021  006F5C  0E00               	movlw	0
  2022  006F5E  6E57               	movwf	(?___fltol+2)^0,c
  2023  006F60  0E00               	movlw	0
  2024  006F62  6E58               	movwf	(?___fltol+3)^0,c
  2025  006F64  EF21  F038         	goto	l398
  2026  006F68                     l1686:
  2027  006F68  C055  F059         	movff	___fltol@f1,??___fltol
  2028  006F6C  C056  F05A         	movff	___fltol@f1+1,??___fltol+1
  2029  006F70  C057  F05B         	movff	___fltol@f1+2,??___fltol+2
  2030  006F74  C058  F05C         	movff	___fltol@f1+3,??___fltol+3
  2031  006F78  0E20               	movlw	32
  2032  006F7A  EFC4  F037         	goto	u1430
  2033  006F7E                     u1435:
  2034  006F7E  90D8               	bcf	status,0,c
  2035  006F80  325C               	rrcf	(??___fltol+3)^0,f,c
  2036  006F82  325B               	rrcf	(??___fltol+2)^0,f,c
  2037  006F84  325A               	rrcf	(??___fltol+1)^0,f,c
  2038  006F86  3259               	rrcf	??___fltol^0,f,c
  2039  006F88                     u1430:
  2040  006F88  2EE8               	decfsz	wreg,f,c
  2041  006F8A  EFBF  F037         	goto	u1435
  2042  006F8E  5059               	movf	??___fltol^0,w,c
  2043  006F90  6E5D               	movwf	___fltol@sign1^0,c
  2044  006F92  8E57               	bsf	(___fltol@f1+2)^0,7,c
  2045  006F94  0EFF               	movlw	255
  2046  006F96  1655               	andwf	___fltol@f1^0,f,c
  2047  006F98  0EFF               	movlw	255
  2048  006F9A  1656               	andwf	(___fltol@f1+1)^0,f,c
  2049  006F9C  0EFF               	movlw	255
  2050  006F9E  1657               	andwf	(___fltol@f1+2)^0,f,c
  2051  006FA0  0E00               	movlw	0
  2052  006FA2  1658               	andwf	(___fltol@f1+3)^0,f,c
  2053  006FA4  0E96               	movlw	150
  2054  006FA6  5E5E               	subwf	___fltol@exp1^0,f,c
  2055  006FA8  BE5E               	btfsc	___fltol@exp1^0,7,c
  2056  006FAA  EFDB  F037         	goto	u1440
  2057  006FAE  EFD9  F037         	goto	u1441
  2058  006FB2                     u1441:
  2059  006FB2  EFF1  F037         	goto	l1706
  2060  006FB6                     u1440:
  2061  006FB6  505E               	movf	___fltol@exp1^0,w,c
  2062  006FB8  0A80               	xorlw	128
  2063  006FBA  0F97               	addlw	151
  2064  006FBC  B0D8               	btfsc	status,0,c
  2065  006FBE  EFE3  F037         	goto	u1451
  2066  006FC2  EFE5  F037         	goto	u1450
  2067  006FC6                     u1451:
  2068  006FC6  EFE7  F037         	goto	l1702
  2069  006FCA                     u1450:
  2070  006FCA  EFAA  F037         	goto	l1682
  2071  006FCE                     l1702:
  2072  006FCE  90D8               	bcf	status,0,c
  2073  006FD0  3258               	rrcf	(___fltol@f1+3)^0,f,c
  2074  006FD2  3257               	rrcf	(___fltol@f1+2)^0,f,c
  2075  006FD4  3256               	rrcf	(___fltol@f1+1)^0,f,c
  2076  006FD6  3255               	rrcf	___fltol@f1^0,f,c
  2077  006FD8  3E5E               	incfsz	___fltol@exp1^0,f,c
  2078  006FDA  EFE7  F037         	goto	l1702
  2079  006FDE  EF09  F038         	goto	l1716
  2080  006FE2                     l1706:
  2081  006FE2  0E1F               	movlw	31
  2082  006FE4  645E               	cpfsgt	___fltol@exp1^0,c
  2083  006FE6  EFF7  F037         	goto	u1461
  2084  006FEA  EFF9  F037         	goto	u1460
  2085  006FEE                     u1461:
  2086  006FEE  EF01  F038         	goto	l1714
  2087  006FF2                     u1460:
  2088  006FF2  EFAA  F037         	goto	l1682
  2089  006FF6                     l1712:
  2090  006FF6  90D8               	bcf	status,0,c
  2091  006FF8  3655               	rlcf	___fltol@f1^0,f,c
  2092  006FFA  3656               	rlcf	(___fltol@f1+1)^0,f,c
  2093  006FFC  3657               	rlcf	(___fltol@f1+2)^0,f,c
  2094  006FFE  3658               	rlcf	(___fltol@f1+3)^0,f,c
  2095  007000  065E               	decf	___fltol@exp1^0,f,c
  2096  007002                     l1714:
  2097  007002  505E               	movf	___fltol@exp1^0,w,c
  2098  007004  A4D8               	btfss	status,2,c
  2099  007006  EF07  F038         	goto	u1471
  2100  00700A  EF09  F038         	goto	u1470
  2101  00700E                     u1471:
  2102  00700E  EFFB  F037         	goto	l1712
  2103  007012                     u1470:
  2104  007012                     l1716:
  2105  007012  505D               	movf	___fltol@sign1^0,w,c
  2106  007014  B4D8               	btfsc	status,2,c
  2107  007016  EF0F  F038         	goto	u1481
  2108  00701A  EF11  F038         	goto	u1480
  2109  00701E                     u1481:
  2110  00701E  EF19  F038         	goto	l1720
  2111  007022                     u1480:
  2112  007022  1E58               	comf	(___fltol@f1+3)^0,f,c
  2113  007024  1E57               	comf	(___fltol@f1+2)^0,f,c
  2114  007026  1E56               	comf	(___fltol@f1+1)^0,f,c
  2115  007028  6C55               	negf	___fltol@f1^0,c
  2116  00702A  0E00               	movlw	0
  2117  00702C  2256               	addwfc	(___fltol@f1+1)^0,f,c
  2118  00702E  2257               	addwfc	(___fltol@f1+2)^0,f,c
  2119  007030  2258               	addwfc	(___fltol@f1+3)^0,f,c
  2120  007032                     l1720:
  2121  007032  C055  F055         	movff	___fltol@f1,?___fltol
  2122  007036  C056  F056         	movff	___fltol@f1+1,?___fltol+1
  2123  00703A  C057  F057         	movff	___fltol@f1+2,?___fltol+2
  2124  00703E  C058  F058         	movff	___fltol@f1+3,?___fltol+3
  2125  007042                     l398:
  2126  007042  0012               	return		;funcret
  2127  007044                     __end_of___fltol:
  2128                           	callstack 0
  2129                           
  2130 ;; *************** function ___flmul *****************
  2131 ;; Defined at:
  2132 ;;		line 8 in file "C:\Program Files\Microchip\xc8\v2.32\pic\sources\c99\common\sprcmul.c"
  2133 ;; Parameters:    Size  Location     Type
  2134 ;;  b               4   59[COMRAM] long 
  2135 ;;  a               4   63[COMRAM] long 
  2136 ;; Auto vars:     Size  Location     Type
  2137 ;;  prod            4   78[COMRAM] struct .
  2138 ;;  grs             4   72[COMRAM] unsigned long 
  2139 ;;  temp            2   82[COMRAM] struct .
  2140 ;;  bexp            1   77[COMRAM] unsigned char 
  2141 ;;  aexp            1   76[COMRAM] unsigned char 
  2142 ;;  sign            1   71[COMRAM] unsigned char 
  2143 ;; Return value:  Size  Location     Type
  2144 ;;                  4   59[COMRAM] unsigned char 
  2145 ;; Registers used:
  2146 ;;		wreg, status,2, status,0, prodl, prodh
  2147 ;; Tracked objects:
  2148 ;;		On entry : 0/0
  2149 ;;		On exit  : 0/0
  2150 ;;		Unchanged: 0/0
  2151 ;; Data sizes:     COMRAM   BANK0   BANK1   BANK2   BANK3   BANK4   BANK5   BANK6   BANK7
  2152 ;;      Params:         8       0       0       0       0       0       0       0       0
  2153 ;;      Locals:        13       0       0       0       0       0       0       0       0
  2154 ;;      Temps:          4       0       0       0       0       0       0       0       0
  2155 ;;      Totals:        25       0       0       0       0       0       0       0       0
  2156 ;;Total ram usage:       25 bytes
  2157 ;; Hardware stack levels used: 1
  2158 ;; This function calls:
  2159 ;;		Nothing
  2160 ;; This function is called by:
  2161 ;;		_PWM_Duty
  2162 ;; This function uses a non-reentrant model
  2163 ;;
  2164                           
  2165                           	psect	text10
  2166  007BD6                     __ptext10:
  2167                           	callstack 0
  2168  007BD6                     ___flmul:
  2169                           	callstack 29
  2170  007BD6  503F               	movf	(___flmul@b+3)^0,w,c
  2171  007BD8  0B80               	andlw	128
  2172  007BDA  6E48               	movwf	___flmul@sign^0,c
  2173  007BDC  503F               	movf	(___flmul@b+3)^0,w,c
  2174  007BDE  243F               	addwf	(___flmul@b+3)^0,w,c
  2175  007BE0  6E4E               	movwf	___flmul@bexp^0,c
  2176  007BE2  AE3E               	btfss	(___flmul@b+2)^0,7,c
  2177  007BE4  EFF6  F03D         	goto	u1231
  2178  007BE8  EFF8  F03D         	goto	u1230
  2179  007BEC                     u1231:
  2180  007BEC  EFF9  F03D         	goto	l1556
  2181  007BF0                     u1230:
  2182  007BF0  804E               	bsf	___flmul@bexp^0,0,c
  2183  007BF2                     l1556:
  2184  007BF2  504E               	movf	___flmul@bexp^0,w,c
  2185  007BF4  B4D8               	btfsc	status,2,c
  2186  007BF6  EFFF  F03D         	goto	u1241
  2187  007BFA  EF01  F03E         	goto	u1240
  2188  007BFE                     u1241:
  2189  007BFE  EF14  F03E         	goto	l1564
  2190  007C02                     u1240:
  2191  007C02  284E               	incf	___flmul@bexp^0,w,c
  2192  007C04  A4D8               	btfss	status,2,c
  2193  007C06  EF07  F03E         	goto	u1251
  2194  007C0A  EF09  F03E         	goto	u1250
  2195  007C0E                     u1251:
  2196  007C0E  EF11  F03E         	goto	l1562
  2197  007C12                     u1250:
  2198  007C12  0E00               	movlw	0
  2199  007C14  6E3C               	movwf	___flmul@b^0,c
  2200  007C16  0E00               	movlw	0
  2201  007C18  6E3D               	movwf	(___flmul@b+1)^0,c
  2202  007C1A  0E00               	movlw	0
  2203  007C1C  6E3E               	movwf	(___flmul@b+2)^0,c
  2204  007C1E  0E00               	movlw	0
  2205  007C20  6E3F               	movwf	(___flmul@b+3)^0,c
  2206  007C22                     l1562:
  2207  007C22  8E3E               	bsf	(___flmul@b+2)^0,7,c
  2208  007C24  EF1C  F03E         	goto	l1566
  2209  007C28                     l1564:
  2210  007C28  0E00               	movlw	0
  2211  007C2A  6E3C               	movwf	___flmul@b^0,c
  2212  007C2C  0E00               	movlw	0
  2213  007C2E  6E3D               	movwf	(___flmul@b+1)^0,c
  2214  007C30  0E00               	movlw	0
  2215  007C32  6E3E               	movwf	(___flmul@b+2)^0,c
  2216  007C34  0E00               	movlw	0
  2217  007C36  6E3F               	movwf	(___flmul@b+3)^0,c
  2218  007C38                     l1566:
  2219  007C38  5043               	movf	(___flmul@a+3)^0,w,c
  2220  007C3A  0B80               	andlw	128
  2221  007C3C  1A48               	xorwf	___flmul@sign^0,f,c
  2222  007C3E  5043               	movf	(___flmul@a+3)^0,w,c
  2223  007C40  2443               	addwf	(___flmul@a+3)^0,w,c
  2224  007C42  6E4D               	movwf	___flmul@aexp^0,c
  2225  007C44  AE42               	btfss	(___flmul@a+2)^0,7,c
  2226  007C46  EF27  F03E         	goto	u1261
  2227  007C4A  EF29  F03E         	goto	u1260
  2228  007C4E                     u1261:
  2229  007C4E  EF2A  F03E         	goto	l1574
  2230  007C52                     u1260:
  2231  007C52  804D               	bsf	___flmul@aexp^0,0,c
  2232  007C54                     l1574:
  2233  007C54  504D               	movf	___flmul@aexp^0,w,c
  2234  007C56  B4D8               	btfsc	status,2,c
  2235  007C58  EF30  F03E         	goto	u1271
  2236  007C5C  EF32  F03E         	goto	u1270
  2237  007C60                     u1271:
  2238  007C60  EF45  F03E         	goto	l1582
  2239  007C64                     u1270:
  2240  007C64  284D               	incf	___flmul@aexp^0,w,c
  2241  007C66  A4D8               	btfss	status,2,c
  2242  007C68  EF38  F03E         	goto	u1281
  2243  007C6C  EF3A  F03E         	goto	u1280
  2244  007C70                     u1281:
  2245  007C70  EF42  F03E         	goto	l1580
  2246  007C74                     u1280:
  2247  007C74  0E00               	movlw	0
  2248  007C76  6E40               	movwf	___flmul@a^0,c
  2249  007C78  0E00               	movlw	0
  2250  007C7A  6E41               	movwf	(___flmul@a+1)^0,c
  2251  007C7C  0E00               	movlw	0
  2252  007C7E  6E42               	movwf	(___flmul@a+2)^0,c
  2253  007C80  0E00               	movlw	0
  2254  007C82  6E43               	movwf	(___flmul@a+3)^0,c
  2255  007C84                     l1580:
  2256  007C84  8E42               	bsf	(___flmul@a+2)^0,7,c
  2257  007C86  EF4D  F03E         	goto	l715
  2258  007C8A                     l1582:
  2259  007C8A  0E00               	movlw	0
  2260  007C8C  6E40               	movwf	___flmul@a^0,c
  2261  007C8E  0E00               	movlw	0
  2262  007C90  6E41               	movwf	(___flmul@a+1)^0,c
  2263  007C92  0E00               	movlw	0
  2264  007C94  6E42               	movwf	(___flmul@a+2)^0,c
  2265  007C96  0E00               	movlw	0
  2266  007C98  6E43               	movwf	(___flmul@a+3)^0,c
  2267  007C9A                     l715:
  2268  007C9A  504D               	movf	___flmul@aexp^0,w,c
  2269  007C9C  B4D8               	btfsc	status,2,c
  2270  007C9E  EF53  F03E         	goto	u1291
  2271  007CA2  EF55  F03E         	goto	u1290
  2272  007CA6                     u1291:
  2273  007CA6  EF5D  F03E         	goto	l1586
  2274  007CAA                     u1290:
  2275  007CAA  504E               	movf	___flmul@bexp^0,w,c
  2276  007CAC  A4D8               	btfss	status,2,c
  2277  007CAE  EF5B  F03E         	goto	u1301
  2278  007CB2  EF5D  F03E         	goto	u1300
  2279  007CB6                     u1301:
  2280  007CB6  EF67  F03E         	goto	l1590
  2281  007CBA                     u1300:
  2282  007CBA                     l1586:
  2283  007CBA  0E00               	movlw	0
  2284  007CBC  6E3C               	movwf	?___flmul^0,c
  2285  007CBE  0E00               	movlw	0
  2286  007CC0  6E3D               	movwf	(?___flmul+1)^0,c
  2287  007CC2  0E00               	movlw	0
  2288  007CC4  6E3E               	movwf	(?___flmul+2)^0,c
  2289  007CC6  0E00               	movlw	0
  2290  007CC8  6E3F               	movwf	(?___flmul+3)^0,c
  2291  007CCA  EFFF  F03F         	goto	l719
  2292  007CCE                     l1590:
  2293  007CCE  5042               	movf	(___flmul@a+2)^0,w,c
  2294  007CD0  023C               	mulwf	___flmul@b^0,c
  2295  007CD2  CFF3 F053          	movff	prodl,___flmul@temp
  2296  007CD6  CFF4 F054          	movff	prodh,___flmul@temp+1
  2297  007CDA  5053               	movf	___flmul@temp^0,w,c
  2298  007CDC  6E49               	movwf	___flmul@grs^0,c
  2299  007CDE  6A4A               	clrf	(___flmul@grs+1)^0,c
  2300  007CE0  6A4B               	clrf	(___flmul@grs+2)^0,c
  2301  007CE2  6A4C               	clrf	(___flmul@grs+3)^0,c
  2302  007CE4  5054               	movf	(___flmul@temp+1)^0,w,c
  2303  007CE6  6E4F               	movwf	___flmul@prod^0,c
  2304  007CE8  6A50               	clrf	(___flmul@prod+1)^0,c
  2305  007CEA  6A51               	clrf	(___flmul@prod+2)^0,c
  2306  007CEC  6A52               	clrf	(___flmul@prod+3)^0,c
  2307  007CEE  5041               	movf	(___flmul@a+1)^0,w,c
  2308  007CF0  023D               	mulwf	(___flmul@b+1)^0,c
  2309  007CF2  CFF3 F053          	movff	prodl,___flmul@temp
  2310  007CF6  CFF4 F054          	movff	prodh,___flmul@temp+1
  2311  007CFA  5053               	movf	___flmul@temp^0,w,c
  2312  007CFC  2649               	addwf	___flmul@grs^0,f,c
  2313  007CFE  0E00               	movlw	0
  2314  007D00  224A               	addwfc	(___flmul@grs+1)^0,f,c
  2315  007D02  224B               	addwfc	(___flmul@grs+2)^0,f,c
  2316  007D04  224C               	addwfc	(___flmul@grs+3)^0,f,c
  2317  007D06  5054               	movf	(___flmul@temp+1)^0,w,c
  2318  007D08  264F               	addwf	___flmul@prod^0,f,c
  2319  007D0A  0E00               	movlw	0
  2320  007D0C  2250               	addwfc	(___flmul@prod+1)^0,f,c
  2321  007D0E  2251               	addwfc	(___flmul@prod+2)^0,f,c
  2322  007D10  2252               	addwfc	(___flmul@prod+3)^0,f,c
  2323  007D12  5040               	movf	___flmul@a^0,w,c
  2324  007D14  023E               	mulwf	(___flmul@b+2)^0,c
  2325  007D16  CFF3 F053          	movff	prodl,___flmul@temp
  2326  007D1A  CFF4 F054          	movff	prodh,___flmul@temp+1
  2327  007D1E  5053               	movf	___flmul@temp^0,w,c
  2328  007D20  2649               	addwf	___flmul@grs^0,f,c
  2329  007D22  0E00               	movlw	0
  2330  007D24  224A               	addwfc	(___flmul@grs+1)^0,f,c
  2331  007D26  224B               	addwfc	(___flmul@grs+2)^0,f,c
  2332  007D28  224C               	addwfc	(___flmul@grs+3)^0,f,c
  2333  007D2A  5054               	movf	(___flmul@temp+1)^0,w,c
  2334  007D2C  264F               	addwf	___flmul@prod^0,f,c
  2335  007D2E  0E00               	movlw	0
  2336  007D30  2250               	addwfc	(___flmul@prod+1)^0,f,c
  2337  007D32  2251               	addwfc	(___flmul@prod+2)^0,f,c
  2338  007D34  2252               	addwfc	(___flmul@prod+3)^0,f,c
  2339  007D36  C04B  F04C         	movff	___flmul@grs+2,___flmul@grs+3
  2340  007D3A  C04A  F04B         	movff	___flmul@grs+1,___flmul@grs+2
  2341  007D3E  C049  F04A         	movff	___flmul@grs,___flmul@grs+1
  2342  007D42  6A49               	clrf	___flmul@grs^0,c
  2343  007D44  5040               	movf	___flmul@a^0,w,c
  2344  007D46  023D               	mulwf	(___flmul@b+1)^0,c
  2345  007D48  CFF3 F053          	movff	prodl,___flmul@temp
  2346  007D4C  CFF4 F054          	movff	prodh,___flmul@temp+1
  2347  007D50  5053               	movf	___flmul@temp^0,w,c
  2348  007D52  2649               	addwf	___flmul@grs^0,f,c
  2349  007D54  5054               	movf	(___flmul@temp+1)^0,w,c
  2350  007D56  224A               	addwfc	(___flmul@grs+1)^0,f,c
  2351  007D58  0E00               	movlw	0
  2352  007D5A  224B               	addwfc	(___flmul@grs+2)^0,f,c
  2353  007D5C  0E00               	movlw	0
  2354  007D5E  224C               	addwfc	(___flmul@grs+3)^0,f,c
  2355  007D60  5041               	movf	(___flmul@a+1)^0,w,c
  2356  007D62  023C               	mulwf	___flmul@b^0,c
  2357  007D64  CFF3 F053          	movff	prodl,___flmul@temp
  2358  007D68  CFF4 F054          	movff	prodh,___flmul@temp+1
  2359  007D6C  5053               	movf	___flmul@temp^0,w,c
  2360  007D6E  2649               	addwf	___flmul@grs^0,f,c
  2361  007D70  5054               	movf	(___flmul@temp+1)^0,w,c
  2362  007D72  224A               	addwfc	(___flmul@grs+1)^0,f,c
  2363  007D74  0E00               	movlw	0
  2364  007D76  224B               	addwfc	(___flmul@grs+2)^0,f,c
  2365  007D78  0E00               	movlw	0
  2366  007D7A  224C               	addwfc	(___flmul@grs+3)^0,f,c
  2367  007D7C  C04B  F04C         	movff	___flmul@grs+2,___flmul@grs+3
  2368  007D80  C04A  F04B         	movff	___flmul@grs+1,___flmul@grs+2
  2369  007D84  C049  F04A         	movff	___flmul@grs,___flmul@grs+1
  2370  007D88  6A49               	clrf	___flmul@grs^0,c
  2371  007D8A  5040               	movf	___flmul@a^0,w,c
  2372  007D8C  023C               	mulwf	___flmul@b^0,c
  2373  007D8E  CFF3 F053          	movff	prodl,___flmul@temp
  2374  007D92  CFF4 F054          	movff	prodh,___flmul@temp+1
  2375  007D96  5053               	movf	___flmul@temp^0,w,c
  2376  007D98  2649               	addwf	___flmul@grs^0,f,c
  2377  007D9A  5054               	movf	(___flmul@temp+1)^0,w,c
  2378  007D9C  224A               	addwfc	(___flmul@grs+1)^0,f,c
  2379  007D9E  0E00               	movlw	0
  2380  007DA0  224B               	addwfc	(___flmul@grs+2)^0,f,c
  2381  007DA2  0E00               	movlw	0
  2382  007DA4  224C               	addwfc	(___flmul@grs+3)^0,f,c
  2383  007DA6  5042               	movf	(___flmul@a+2)^0,w,c
  2384  007DA8  023D               	mulwf	(___flmul@b+1)^0,c
  2385  007DAA  CFF3 F053          	movff	prodl,___flmul@temp
  2386  007DAE  CFF4 F054          	movff	prodh,___flmul@temp+1
  2387  007DB2  5053               	movf	___flmul@temp^0,w,c
  2388  007DB4  264F               	addwf	___flmul@prod^0,f,c
  2389  007DB6  5054               	movf	(___flmul@temp+1)^0,w,c
  2390  007DB8  2250               	addwfc	(___flmul@prod+1)^0,f,c
  2391  007DBA  0E00               	movlw	0
  2392  007DBC  2251               	addwfc	(___flmul@prod+2)^0,f,c
  2393  007DBE  0E00               	movlw	0
  2394  007DC0  2252               	addwfc	(___flmul@prod+3)^0,f,c
  2395  007DC2  5041               	movf	(___flmul@a+1)^0,w,c
  2396  007DC4  023E               	mulwf	(___flmul@b+2)^0,c
  2397  007DC6  CFF3 F053          	movff	prodl,___flmul@temp
  2398  007DCA  CFF4 F054          	movff	prodh,___flmul@temp+1
  2399  007DCE  5053               	movf	___flmul@temp^0,w,c
  2400  007DD0  264F               	addwf	___flmul@prod^0,f,c
  2401  007DD2  5054               	movf	(___flmul@temp+1)^0,w,c
  2402  007DD4  2250               	addwfc	(___flmul@prod+1)^0,f,c
  2403  007DD6  0E00               	movlw	0
  2404  007DD8  2251               	addwfc	(___flmul@prod+2)^0,f,c
  2405  007DDA  0E00               	movlw	0
  2406  007DDC  2252               	addwfc	(___flmul@prod+3)^0,f,c
  2407  007DDE  5042               	movf	(___flmul@a+2)^0,w,c
  2408  007DE0  023E               	mulwf	(___flmul@b+2)^0,c
  2409  007DE2  CFF3 F053          	movff	prodl,___flmul@temp
  2410  007DE6  CFF4 F054          	movff	prodh,___flmul@temp+1
  2411  007DEA  5053               	movf	___flmul@temp^0,w,c
  2412  007DEC  6E44               	movwf	??___flmul^0,c
  2413  007DEE  5054               	movf	(___flmul@temp+1)^0,w,c
  2414  007DF0  6E45               	movwf	(??___flmul+1)^0,c
  2415  007DF2  6A46               	clrf	(??___flmul+2)^0,c
  2416  007DF4  6A47               	clrf	(??___flmul+3)^0,c
  2417  007DF6  C046  F047         	movff	??___flmul+2,??___flmul+3
  2418  007DFA  C045  F046         	movff	??___flmul+1,??___flmul+2
  2419  007DFE  C044  F045         	movff	??___flmul,??___flmul+1
  2420  007E02  6A44               	clrf	??___flmul^0,c
  2421  007E04  5044               	movf	??___flmul^0,w,c
  2422  007E06  264F               	addwf	___flmul@prod^0,f,c
  2423  007E08  5045               	movf	(??___flmul+1)^0,w,c
  2424  007E0A  2250               	addwfc	(___flmul@prod+1)^0,f,c
  2425  007E0C  5046               	movf	(??___flmul+2)^0,w,c
  2426  007E0E  2251               	addwfc	(___flmul@prod+2)^0,f,c
  2427  007E10  5047               	movf	(??___flmul+3)^0,w,c
  2428  007E12  2252               	addwfc	(___flmul@prod+3)^0,f,c
  2429  007E14  C049  F044         	movff	___flmul@grs,??___flmul
  2430  007E18  C04A  F045         	movff	___flmul@grs+1,??___flmul+1
  2431  007E1C  C04B  F046         	movff	___flmul@grs+2,??___flmul+2
  2432  007E20  C04C  F047         	movff	___flmul@grs+3,??___flmul+3
  2433  007E24  0E19               	movlw	25
  2434  007E26  EF1A  F03F         	goto	u1310
  2435  007E2A                     u1315:
  2436  007E2A  90D8               	bcf	status,0,c
  2437  007E2C  3247               	rrcf	(??___flmul+3)^0,f,c
  2438  007E2E  3246               	rrcf	(??___flmul+2)^0,f,c
  2439  007E30  3245               	rrcf	(??___flmul+1)^0,f,c
  2440  007E32  3244               	rrcf	??___flmul^0,f,c
  2441  007E34                     u1310:
  2442  007E34  2EE8               	decfsz	wreg,f,c
  2443  007E36  EF15  F03F         	goto	u1315
  2444  007E3A  5044               	movf	??___flmul^0,w,c
  2445  007E3C  264F               	addwf	___flmul@prod^0,f,c
  2446  007E3E  5045               	movf	(??___flmul+1)^0,w,c
  2447  007E40  2250               	addwfc	(___flmul@prod+1)^0,f,c
  2448  007E42  5046               	movf	(??___flmul+2)^0,w,c
  2449  007E44  2251               	addwfc	(___flmul@prod+2)^0,f,c
  2450  007E46  5047               	movf	(??___flmul+3)^0,w,c
  2451  007E48  2252               	addwfc	(___flmul@prod+3)^0,f,c
  2452  007E4A  C04B  F04C         	movff	___flmul@grs+2,___flmul@grs+3
  2453  007E4E  C04A  F04B         	movff	___flmul@grs+1,___flmul@grs+2
  2454  007E52  C049  F04A         	movff	___flmul@grs,___flmul@grs+1
  2455  007E56  6A49               	clrf	___flmul@grs^0,c
  2456  007E58  504D               	movf	___flmul@aexp^0,w,c
  2457  007E5A  C04E  F044         	movff	___flmul@bexp,??___flmul
  2458  007E5E  6A45               	clrf	(??___flmul+1)^0,c
  2459  007E60  2644               	addwf	??___flmul^0,f,c
  2460  007E62  0E00               	movlw	0
  2461  007E64  2245               	addwfc	(??___flmul+1)^0,f,c
  2462  007E66  0E82               	movlw	130
  2463  007E68  2444               	addwf	??___flmul^0,w,c
  2464  007E6A  6E53               	movwf	___flmul@temp^0,c
  2465  007E6C  0EFF               	movlw	255
  2466  007E6E  2045               	addwfc	(??___flmul+1)^0,w,c
  2467  007E70  6E54               	movwf	(___flmul@temp+1)^0,c
  2468  007E72  EF50  F03F         	goto	l1638
  2469  007E76                     l1632:
  2470  007E76  90D8               	bcf	status,0,c
  2471  007E78  364F               	rlcf	___flmul@prod^0,f,c
  2472  007E7A  3650               	rlcf	(___flmul@prod+1)^0,f,c
  2473  007E7C  3651               	rlcf	(___flmul@prod+2)^0,f,c
  2474  007E7E  3652               	rlcf	(___flmul@prod+3)^0,f,c
  2475  007E80  AE4C               	btfss	(___flmul@grs+3)^0,7,c
  2476  007E82  EF45  F03F         	goto	u1321
  2477  007E86  EF47  F03F         	goto	u1320
  2478  007E8A                     u1321:
  2479  007E8A  EF48  F03F         	goto	l722
  2480  007E8E                     u1320:
  2481  007E8E  804F               	bsf	___flmul@prod^0,0,c
  2482  007E90                     l722:
  2483  007E90  90D8               	bcf	status,0,c
  2484  007E92  3649               	rlcf	___flmul@grs^0,f,c
  2485  007E94  364A               	rlcf	(___flmul@grs+1)^0,f,c
  2486  007E96  364B               	rlcf	(___flmul@grs+2)^0,f,c
  2487  007E98  364C               	rlcf	(___flmul@grs+3)^0,f,c
  2488  007E9A  0653               	decf	___flmul@temp^0,f,c
  2489  007E9C  A0D8               	btfss	status,0,c
  2490  007E9E  0654               	decf	(___flmul@temp+1)^0,f,c
  2491  007EA0                     l1638:
  2492  007EA0  AE51               	btfss	(___flmul@prod+2)^0,7,c
  2493  007EA2  EF55  F03F         	goto	u1331
  2494  007EA6  EF57  F03F         	goto	u1330
  2495  007EAA                     u1331:
  2496  007EAA  EF3B  F03F         	goto	l1632
  2497  007EAE                     u1330:
  2498  007EAE  0E00               	movlw	0
  2499  007EB0  6E4D               	movwf	___flmul@aexp^0,c
  2500  007EB2  AE4C               	btfss	(___flmul@grs+3)^0,7,c
  2501  007EB4  EF5E  F03F         	goto	u1341
  2502  007EB8  EF60  F03F         	goto	u1340
  2503  007EBC                     u1341:
  2504  007EBC  EF84  F03F         	goto	l724
  2505  007EC0                     u1340:
  2506  007EC0  0EFF               	movlw	255
  2507  007EC2  1449               	andwf	___flmul@grs^0,w,c
  2508  007EC4  6E44               	movwf	??___flmul^0,c
  2509  007EC6  0EFF               	movlw	255
  2510  007EC8  144A               	andwf	(___flmul@grs+1)^0,w,c
  2511  007ECA  6E45               	movwf	(??___flmul+1)^0,c
  2512  007ECC  0EFF               	movlw	255
  2513  007ECE  144B               	andwf	(___flmul@grs+2)^0,w,c
  2514  007ED0  6E46               	movwf	(??___flmul+2)^0,c
  2515  007ED2  0E7F               	movlw	127
  2516  007ED4  144C               	andwf	(___flmul@grs+3)^0,w,c
  2517  007ED6  6E47               	movwf	(??___flmul+3)^0,c
  2518  007ED8  5044               	movf	??___flmul^0,w,c
  2519  007EDA  1045               	iorwf	(??___flmul+1)^0,w,c
  2520  007EDC  1046               	iorwf	(??___flmul+2)^0,w,c
  2521  007EDE  1047               	iorwf	(??___flmul+3)^0,w,c
  2522  007EE0  B4D8               	btfsc	status,2,c
  2523  007EE2  EF75  F03F         	goto	u1351
  2524  007EE6  EF77  F03F         	goto	u1350
  2525  007EEA                     u1351:
  2526  007EEA  EF7B  F03F         	goto	l725
  2527  007EEE                     u1350:
  2528  007EEE                     l1646:
  2529  007EEE  0E01               	movlw	1
  2530  007EF0  6E4D               	movwf	___flmul@aexp^0,c
  2531  007EF2  EF84  F03F         	goto	l724
  2532  007EF6                     l725:
  2533  007EF6  A04F               	btfss	___flmul@prod^0,0,c
  2534  007EF8  EF80  F03F         	goto	u1361
  2535  007EFC  EF82  F03F         	goto	u1360
  2536  007F00                     u1361:
  2537  007F00  EF84  F03F         	goto	l724
  2538  007F04                     u1360:
  2539  007F04  EF77  F03F         	goto	l1646
  2540  007F08                     l724:
  2541  007F08  504D               	movf	___flmul@aexp^0,w,c
  2542  007F0A  B4D8               	btfsc	status,2,c
  2543  007F0C  EF8A  F03F         	goto	u1371
  2544  007F10  EF8C  F03F         	goto	u1370
  2545  007F14                     u1371:
  2546  007F14  EFB0  F03F         	goto	l1658
  2547  007F18                     u1370:
  2548  007F18  0E01               	movlw	1
  2549  007F1A  264F               	addwf	___flmul@prod^0,f,c
  2550  007F1C  0E00               	movlw	0
  2551  007F1E  2250               	addwfc	(___flmul@prod+1)^0,f,c
  2552  007F20  2251               	addwfc	(___flmul@prod+2)^0,f,c
  2553  007F22  2252               	addwfc	(___flmul@prod+3)^0,f,c
  2554  007F24  A052               	btfss	(___flmul@prod+3)^0,0,c
  2555  007F26  EF97  F03F         	goto	u1381
  2556  007F2A  EF99  F03F         	goto	u1380
  2557  007F2E                     u1381:
  2558  007F2E  EFB0  F03F         	goto	l1658
  2559  007F32                     u1380:
  2560  007F32  C04F  F044         	movff	___flmul@prod,??___flmul
  2561  007F36  C050  F045         	movff	___flmul@prod+1,??___flmul+1
  2562  007F3A  C051  F046         	movff	___flmul@prod+2,??___flmul+2
  2563  007F3E  C052  F047         	movff	___flmul@prod+3,??___flmul+3
  2564  007F42  3447               	rlcf	(??___flmul+3)^0,w,c
  2565  007F44  3247               	rrcf	(??___flmul+3)^0,f,c
  2566  007F46  3246               	rrcf	(??___flmul+2)^0,f,c
  2567  007F48  3245               	rrcf	(??___flmul+1)^0,f,c
  2568  007F4A  3244               	rrcf	??___flmul^0,f,c
  2569  007F4C  C044  F04F         	movff	??___flmul,___flmul@prod
  2570  007F50  C045  F050         	movff	??___flmul+1,___flmul@prod+1
  2571  007F54  C046  F051         	movff	??___flmul+2,___flmul@prod+2
  2572  007F58  C047  F052         	movff	??___flmul+3,___flmul@prod+3
  2573  007F5C  4A53               	infsnz	___flmul@temp^0,f,c
  2574  007F5E  2A54               	incf	(___flmul@temp+1)^0,f,c
  2575  007F60                     l1658:
  2576  007F60  BE54               	btfsc	(___flmul@temp+1)^0,7,c
  2577  007F62  EFBB  F03F         	goto	u1391
  2578  007F66  5054               	movf	(___flmul@temp+1)^0,w,c
  2579  007F68  E108               	bnz	u1390
  2580  007F6A  2853               	incf	___flmul@temp^0,w,c
  2581  007F6C  A0D8               	btfss	status,0,c
  2582  007F6E  EFBB  F03F         	goto	u1391
  2583  007F72  EFBD  F03F         	goto	u1390
  2584  007F76                     u1391:
  2585  007F76  EFC7  F03F         	goto	l1662
  2586  007F7A                     u1390:
  2587  007F7A  0E00               	movlw	0
  2588  007F7C  6E4F               	movwf	___flmul@prod^0,c
  2589  007F7E  0E00               	movlw	0
  2590  007F80  6E50               	movwf	(___flmul@prod+1)^0,c
  2591  007F82  0E80               	movlw	128
  2592  007F84  6E51               	movwf	(___flmul@prod+2)^0,c
  2593  007F86  0E7F               	movlw	127
  2594  007F88  6E52               	movwf	(___flmul@prod+3)^0,c
  2595  007F8A  EFF5  F03F         	goto	l1674
  2596  007F8E                     l1662:
  2597  007F8E  BE54               	btfsc	(___flmul@temp+1)^0,7,c
  2598  007F90  EFD4  F03F         	goto	u1400
  2599  007F94  5054               	movf	(___flmul@temp+1)^0,w,c
  2600  007F96  E106               	bnz	u1401
  2601  007F98  0453               	decf	___flmul@temp^0,w,c
  2602  007F9A  B0D8               	btfsc	status,0,c
  2603  007F9C  EFD2  F03F         	goto	u1401
  2604  007FA0  EFD4  F03F         	goto	u1400
  2605  007FA4                     u1401:
  2606  007FA4  EFE0  F03F         	goto	l732
  2607  007FA8                     u1400:
  2608  007FA8  0E00               	movlw	0
  2609  007FAA  6E4F               	movwf	___flmul@prod^0,c
  2610  007FAC  0E00               	movlw	0
  2611  007FAE  6E50               	movwf	(___flmul@prod+1)^0,c
  2612  007FB0  0E00               	movlw	0
  2613  007FB2  6E51               	movwf	(___flmul@prod+2)^0,c
  2614  007FB4  0E00               	movlw	0
  2615  007FB6  6E52               	movwf	(___flmul@prod+3)^0,c
  2616  007FB8  0E00               	movlw	0
  2617  007FBA  6E48               	movwf	___flmul@sign^0,c
  2618  007FBC  EFF5  F03F         	goto	l1674
  2619  007FC0                     l732:
  2620  007FC0  C053  F04E         	movff	___flmul@temp,___flmul@bexp
  2621  007FC4  0EFF               	movlw	255
  2622  007FC6  164F               	andwf	___flmul@prod^0,f,c
  2623  007FC8  0EFF               	movlw	255
  2624  007FCA  1650               	andwf	(___flmul@prod+1)^0,f,c
  2625  007FCC  0E7F               	movlw	127
  2626  007FCE  1651               	andwf	(___flmul@prod+2)^0,f,c
  2627  007FD0  0E00               	movlw	0
  2628  007FD2  1652               	andwf	(___flmul@prod+3)^0,f,c
  2629  007FD4  A04E               	btfss	___flmul@bexp^0,0,c
  2630  007FD6  EFEF  F03F         	goto	u1411
  2631  007FDA  EFF1  F03F         	goto	u1410
  2632  007FDE                     u1411:
  2633  007FDE  EFF2  F03F         	goto	l1672
  2634  007FE2                     u1410:
  2635  007FE2  8E51               	bsf	(___flmul@prod+2)^0,7,c
  2636  007FE4                     l1672:
  2637  007FE4  90D8               	bcf	status,0,c
  2638  007FE6  304E               	rrcf	___flmul@bexp^0,w,c
  2639  007FE8  6E52               	movwf	(___flmul@prod+3)^0,c
  2640  007FEA                     l1674:
  2641  007FEA  5048               	movf	___flmul@sign^0,w,c
  2642  007FEC  1252               	iorwf	(___flmul@prod+3)^0,f,c
  2643  007FEE  C04F  F03C         	movff	___flmul@prod,?___flmul
  2644  007FF2  C050  F03D         	movff	___flmul@prod+1,?___flmul+1
  2645  007FF6  C051  F03E         	movff	___flmul@prod+2,?___flmul+2
  2646  007FFA  C052  F03F         	movff	___flmul@prod+3,?___flmul+3
  2647  007FFE                     l719:
  2648  007FFE  0012               	return		;funcret
  2649  008000                     __end_of___flmul:
  2650                           	callstack 0
  2651                           
  2652 ;; *************** function ___fldiv *****************
  2653 ;; Defined at:
  2654 ;;		line 11 in file "C:\Program Files\Microchip\xc8\v2.32\pic\sources\c99\common\sprcdiv.c"
  2655 ;; Parameters:    Size  Location     Type
  2656 ;;  b               4   34[COMRAM] unsigned char 
  2657 ;;  a               4   38[COMRAM] unsigned char 
  2658 ;; Auto vars:     Size  Location     Type
  2659 ;;  grs             4   53[COMRAM] unsigned long 
  2660 ;;  rem             4   46[COMRAM] unsigned long 
  2661 ;;  new_exp         2   51[COMRAM] short 
  2662 ;;  aexp            1   58[COMRAM] unsigned char 
  2663 ;;  bexp            1   57[COMRAM] unsigned char 
  2664 ;;  sign            1   50[COMRAM] unsigned char 
  2665 ;; Return value:  Size  Location     Type
  2666 ;;                  4   34[COMRAM] unsigned char 
  2667 ;; Registers used:
  2668 ;;		wreg, status,2, status,0
  2669 ;; Tracked objects:
  2670 ;;		On entry : 0/0
  2671 ;;		On exit  : 0/0
  2672 ;;		Unchanged: 0/0
  2673 ;; Data sizes:     COMRAM   BANK0   BANK1   BANK2   BANK3   BANK4   BANK5   BANK6   BANK7
  2674 ;;      Params:         8       0       0       0       0       0       0       0       0
  2675 ;;      Locals:        13       0       0       0       0       0       0       0       0
  2676 ;;      Temps:          4       0       0       0       0       0       0       0       0
  2677 ;;      Totals:        25       0       0       0       0       0       0       0       0
  2678 ;;Total ram usage:       25 bytes
  2679 ;; Hardware stack levels used: 1
  2680 ;; This function calls:
  2681 ;;		Nothing
  2682 ;; This function is called by:
  2683 ;;		_PWM_Duty
  2684 ;; This function uses a non-reentrant model
  2685 ;;
  2686                           
  2687                           	psect	text11
  2688  00783C                     __ptext11:
  2689                           	callstack 0
  2690  00783C                     ___fldiv:
  2691                           	callstack 29
  2692  00783C  5026               	movf	(___fldiv@b+3)^0,w,c
  2693  00783E  0B80               	andlw	128
  2694  007840  6E33               	movwf	___fldiv@sign^0,c
  2695  007842  5026               	movf	(___fldiv@b+3)^0,w,c
  2696  007844  2426               	addwf	(___fldiv@b+3)^0,w,c
  2697  007846  6E3A               	movwf	___fldiv@bexp^0,c
  2698  007848  AE25               	btfss	(___fldiv@b+2)^0,7,c
  2699  00784A  EF29  F03C         	goto	u1001
  2700  00784E  EF2B  F03C         	goto	u1000
  2701  007852                     u1001:
  2702  007852  EF2C  F03C         	goto	l1418
  2703  007856                     u1000:
  2704  007856  803A               	bsf	___fldiv@bexp^0,0,c
  2705  007858                     l1418:
  2706  007858  503A               	movf	___fldiv@bexp^0,w,c
  2707  00785A  B4D8               	btfsc	status,2,c
  2708  00785C  EF32  F03C         	goto	u1011
  2709  007860  EF34  F03C         	goto	u1010
  2710  007864                     u1011:
  2711  007864  EF49  F03C         	goto	l1428
  2712  007868                     u1010:
  2713  007868  283A               	incf	___fldiv@bexp^0,w,c
  2714  00786A  A4D8               	btfss	status,2,c
  2715  00786C  EF3A  F03C         	goto	u1021
  2716  007870  EF3C  F03C         	goto	u1020
  2717  007874                     u1021:
  2718  007874  EF44  F03C         	goto	l1424
  2719  007878                     u1020:
  2720  007878  0E00               	movlw	0
  2721  00787A  6E23               	movwf	___fldiv@b^0,c
  2722  00787C  0E00               	movlw	0
  2723  00787E  6E24               	movwf	(___fldiv@b+1)^0,c
  2724  007880  0E00               	movlw	0
  2725  007882  6E25               	movwf	(___fldiv@b+2)^0,c
  2726  007884  0E00               	movlw	0
  2727  007886  6E26               	movwf	(___fldiv@b+3)^0,c
  2728  007888                     l1424:
  2729  007888  8E25               	bsf	(___fldiv@b+2)^0,7,c
  2730  00788A  0E00               	movlw	0
  2731  00788C  6E26               	movwf	(___fldiv@b+3)^0,c
  2732  00788E  EF51  F03C         	goto	l1430
  2733  007892                     l1428:
  2734  007892  0E00               	movlw	0
  2735  007894  6E23               	movwf	___fldiv@b^0,c
  2736  007896  0E00               	movlw	0
  2737  007898  6E24               	movwf	(___fldiv@b+1)^0,c
  2738  00789A  0E00               	movlw	0
  2739  00789C  6E25               	movwf	(___fldiv@b+2)^0,c
  2740  00789E  0E00               	movlw	0
  2741  0078A0  6E26               	movwf	(___fldiv@b+3)^0,c
  2742  0078A2                     l1430:
  2743  0078A2  502A               	movf	(___fldiv@a+3)^0,w,c
  2744  0078A4  0B80               	andlw	128
  2745  0078A6  1A33               	xorwf	___fldiv@sign^0,f,c
  2746  0078A8  502A               	movf	(___fldiv@a+3)^0,w,c
  2747  0078AA  242A               	addwf	(___fldiv@a+3)^0,w,c
  2748  0078AC  6E3B               	movwf	___fldiv@aexp^0,c
  2749  0078AE  AE29               	btfss	(___fldiv@a+2)^0,7,c
  2750  0078B0  EF5C  F03C         	goto	u1031
  2751  0078B4  EF5E  F03C         	goto	u1030
  2752  0078B8                     u1031:
  2753  0078B8  EF5F  F03C         	goto	l1438
  2754  0078BC                     u1030:
  2755  0078BC  803B               	bsf	___fldiv@aexp^0,0,c
  2756  0078BE                     l1438:
  2757  0078BE  503B               	movf	___fldiv@aexp^0,w,c
  2758  0078C0  B4D8               	btfsc	status,2,c
  2759  0078C2  EF65  F03C         	goto	u1041
  2760  0078C6  EF67  F03C         	goto	u1040
  2761  0078CA                     u1041:
  2762  0078CA  EF7C  F03C         	goto	l1448
  2763  0078CE                     u1040:
  2764  0078CE  283B               	incf	___fldiv@aexp^0,w,c
  2765  0078D0  A4D8               	btfss	status,2,c
  2766  0078D2  EF6D  F03C         	goto	u1051
  2767  0078D6  EF6F  F03C         	goto	u1050
  2768  0078DA                     u1051:
  2769  0078DA  EF77  F03C         	goto	l1444
  2770  0078DE                     u1050:
  2771  0078DE  0E00               	movlw	0
  2772  0078E0  6E27               	movwf	___fldiv@a^0,c
  2773  0078E2  0E00               	movlw	0
  2774  0078E4  6E28               	movwf	(___fldiv@a+1)^0,c
  2775  0078E6  0E00               	movlw	0
  2776  0078E8  6E29               	movwf	(___fldiv@a+2)^0,c
  2777  0078EA  0E00               	movlw	0
  2778  0078EC  6E2A               	movwf	(___fldiv@a+3)^0,c
  2779  0078EE                     l1444:
  2780  0078EE  8E29               	bsf	(___fldiv@a+2)^0,7,c
  2781  0078F0  0E00               	movlw	0
  2782  0078F2  6E2A               	movwf	(___fldiv@a+3)^0,c
  2783  0078F4  EF84  F03C         	goto	l1450
  2784  0078F8                     l1448:
  2785  0078F8  0E00               	movlw	0
  2786  0078FA  6E27               	movwf	___fldiv@a^0,c
  2787  0078FC  0E00               	movlw	0
  2788  0078FE  6E28               	movwf	(___fldiv@a+1)^0,c
  2789  007900  0E00               	movlw	0
  2790  007902  6E29               	movwf	(___fldiv@a+2)^0,c
  2791  007904  0E00               	movlw	0
  2792  007906  6E2A               	movwf	(___fldiv@a+3)^0,c
  2793  007908                     l1450:
  2794  007908  5027               	movf	___fldiv@a^0,w,c
  2795  00790A  1028               	iorwf	(___fldiv@a+1)^0,w,c
  2796  00790C  1029               	iorwf	(___fldiv@a+2)^0,w,c
  2797  00790E  102A               	iorwf	(___fldiv@a+3)^0,w,c
  2798  007910  A4D8               	btfss	status,2,c
  2799  007912  EF8D  F03C         	goto	u1061
  2800  007916  EF8F  F03C         	goto	u1060
  2801  00791A                     u1061:
  2802  00791A  EFA7  F03C         	goto	l1462
  2803  00791E                     u1060:
  2804  00791E  0E00               	movlw	0
  2805  007920  6E23               	movwf	___fldiv@b^0,c
  2806  007922  0E00               	movlw	0
  2807  007924  6E24               	movwf	(___fldiv@b+1)^0,c
  2808  007926  0E00               	movlw	0
  2809  007928  6E25               	movwf	(___fldiv@b+2)^0,c
  2810  00792A  0E00               	movlw	0
  2811  00792C  6E26               	movwf	(___fldiv@b+3)^0,c
  2812  00792E  0E80               	movlw	128
  2813  007930  1225               	iorwf	(___fldiv@b+2)^0,f,c
  2814  007932  0E7F               	movlw	127
  2815  007934  1226               	iorwf	(___fldiv@b+3)^0,f,c
  2816  007936                     l1456:
  2817  007936  5033               	movf	___fldiv@sign^0,w,c
  2818  007938  1226               	iorwf	(___fldiv@b+3)^0,f,c
  2819  00793A  C023  F023         	movff	___fldiv@b,?___fldiv
  2820  00793E  C024  F024         	movff	___fldiv@b+1,?___fldiv+1
  2821  007942  C025  F025         	movff	___fldiv@b+2,?___fldiv+2
  2822  007946  C026  F026         	movff	___fldiv@b+3,?___fldiv+3
  2823  00794A  EFEA  F03D         	goto	l683
  2824  00794E                     l1462:
  2825  00794E  503A               	movf	___fldiv@bexp^0,w,c
  2826  007950  A4D8               	btfss	status,2,c
  2827  007952  EFAD  F03C         	goto	u1071
  2828  007956  EFAF  F03C         	goto	u1070
  2829  00795A                     u1071:
  2830  00795A  EFB9  F03C         	goto	l1470
  2831  00795E                     u1070:
  2832  00795E  0E00               	movlw	0
  2833  007960  6E23               	movwf	?___fldiv^0,c
  2834  007962  0E00               	movlw	0
  2835  007964  6E24               	movwf	(?___fldiv+1)^0,c
  2836  007966  0E00               	movlw	0
  2837  007968  6E25               	movwf	(?___fldiv+2)^0,c
  2838  00796A  0E00               	movlw	0
  2839  00796C  6E26               	movwf	(?___fldiv+3)^0,c
  2840  00796E  EFEA  F03D         	goto	l683
  2841  007972                     l1470:
  2842  007972  503B               	movf	___fldiv@aexp^0,w,c
  2843  007974  C03A  F02B         	movff	___fldiv@bexp,??___fldiv
  2844  007978  6A2C               	clrf	(??___fldiv+1)^0,c
  2845  00797A  5E2B               	subwf	??___fldiv^0,f,c
  2846  00797C  0E00               	movlw	0
  2847  00797E  5A2C               	subwfb	(??___fldiv+1)^0,f,c
  2848  007980  0E7F               	movlw	127
  2849  007982  242B               	addwf	??___fldiv^0,w,c
  2850  007984  6E34               	movwf	___fldiv@new_exp^0,c
  2851  007986  0E00               	movlw	0
  2852  007988  202C               	addwfc	(??___fldiv+1)^0,w,c
  2853  00798A  6E35               	movwf	(___fldiv@new_exp+1)^0,c
  2854  00798C  C023  F02F         	movff	___fldiv@b,___fldiv@rem
  2855  007990  C024  F030         	movff	___fldiv@b+1,___fldiv@rem+1
  2856  007994  C025  F031         	movff	___fldiv@b+2,___fldiv@rem+2
  2857  007998  C026  F032         	movff	___fldiv@b+3,___fldiv@rem+3
  2858  00799C  0E00               	movlw	0
  2859  00799E  6E23               	movwf	___fldiv@b^0,c
  2860  0079A0  0E00               	movlw	0
  2861  0079A2  6E24               	movwf	(___fldiv@b+1)^0,c
  2862  0079A4  0E00               	movlw	0
  2863  0079A6  6E25               	movwf	(___fldiv@b+2)^0,c
  2864  0079A8  0E00               	movlw	0
  2865  0079AA  6E26               	movwf	(___fldiv@b+3)^0,c
  2866  0079AC  0E00               	movlw	0
  2867  0079AE  6E36               	movwf	___fldiv@grs^0,c
  2868  0079B0  0E00               	movlw	0
  2869  0079B2  6E37               	movwf	(___fldiv@grs+1)^0,c
  2870  0079B4  0E00               	movlw	0
  2871  0079B6  6E38               	movwf	(___fldiv@grs+2)^0,c
  2872  0079B8  0E00               	movlw	0
  2873  0079BA  6E39               	movwf	(___fldiv@grs+3)^0,c
  2874  0079BC  0E00               	movlw	0
  2875  0079BE  6E3B               	movwf	___fldiv@aexp^0,c
  2876  0079C0  EF1A  F03D         	goto	l685
  2877  0079C4                     l1480:
  2878  0079C4  503B               	movf	___fldiv@aexp^0,w,c
  2879  0079C6  B4D8               	btfsc	status,2,c
  2880  0079C8  EFE8  F03C         	goto	u1081
  2881  0079CC  EFEA  F03C         	goto	u1080
  2882  0079D0                     u1081:
  2883  0079D0  EF01  F03D         	goto	l1488
  2884  0079D4                     u1080:
  2885  0079D4  90D8               	bcf	status,0,c
  2886  0079D6  362F               	rlcf	___fldiv@rem^0,f,c
  2887  0079D8  3630               	rlcf	(___fldiv@rem+1)^0,f,c
  2888  0079DA  3631               	rlcf	(___fldiv@rem+2)^0,f,c
  2889  0079DC  3632               	rlcf	(___fldiv@rem+3)^0,f,c
  2890  0079DE  90D8               	bcf	status,0,c
  2891  0079E0  3623               	rlcf	___fldiv@b^0,f,c
  2892  0079E2  3624               	rlcf	(___fldiv@b+1)^0,f,c
  2893  0079E4  3625               	rlcf	(___fldiv@b+2)^0,f,c
  2894  0079E6  3626               	rlcf	(___fldiv@b+3)^0,f,c
  2895  0079E8  AE39               	btfss	(___fldiv@grs+3)^0,7,c
  2896  0079EA  EFF9  F03C         	goto	u1091
  2897  0079EE  EFFB  F03C         	goto	u1090
  2898  0079F2                     u1091:
  2899  0079F2  EFFC  F03C         	goto	l688
  2900  0079F6                     u1090:
  2901  0079F6  8023               	bsf	___fldiv@b^0,0,c
  2902  0079F8                     l688:
  2903  0079F8  90D8               	bcf	status,0,c
  2904  0079FA  3636               	rlcf	___fldiv@grs^0,f,c
  2905  0079FC  3637               	rlcf	(___fldiv@grs+1)^0,f,c
  2906  0079FE  3638               	rlcf	(___fldiv@grs+2)^0,f,c
  2907  007A00  3639               	rlcf	(___fldiv@grs+3)^0,f,c
  2908  007A02                     l1488:
  2909  007A02  5027               	movf	___fldiv@a^0,w,c
  2910  007A04  5C2F               	subwf	___fldiv@rem^0,w,c
  2911  007A06  5028               	movf	(___fldiv@a+1)^0,w,c
  2912  007A08  5830               	subwfb	(___fldiv@rem+1)^0,w,c
  2913  007A0A  5029               	movf	(___fldiv@a+2)^0,w,c
  2914  007A0C  5831               	subwfb	(___fldiv@rem+2)^0,w,c
  2915  007A0E  502A               	movf	(___fldiv@a+3)^0,w,c
  2916  007A10  5832               	subwfb	(___fldiv@rem+3)^0,w,c
  2917  007A12  A0D8               	btfss	status,0,c
  2918  007A14  EF0E  F03D         	goto	u1101
  2919  007A18  EF10  F03D         	goto	u1100
  2920  007A1C                     u1101:
  2921  007A1C  EF19  F03D         	goto	l1494
  2922  007A20                     u1100:
  2923  007A20  8C39               	bsf	(___fldiv@grs+3)^0,6,c
  2924  007A22  5027               	movf	___fldiv@a^0,w,c
  2925  007A24  5E2F               	subwf	___fldiv@rem^0,f,c
  2926  007A26  5028               	movf	(___fldiv@a+1)^0,w,c
  2927  007A28  5A30               	subwfb	(___fldiv@rem+1)^0,f,c
  2928  007A2A  5029               	movf	(___fldiv@a+2)^0,w,c
  2929  007A2C  5A31               	subwfb	(___fldiv@rem+2)^0,f,c
  2930  007A2E  502A               	movf	(___fldiv@a+3)^0,w,c
  2931  007A30  5A32               	subwfb	(___fldiv@rem+3)^0,f,c
  2932  007A32                     l1494:
  2933  007A32  2A3B               	incf	___fldiv@aexp^0,f,c
  2934  007A34                     l685:
  2935  007A34  0E19               	movlw	25
  2936  007A36  643B               	cpfsgt	___fldiv@aexp^0,c
  2937  007A38  EF20  F03D         	goto	u1111
  2938  007A3C  EF22  F03D         	goto	u1110
  2939  007A40                     u1111:
  2940  007A40  EFE2  F03C         	goto	l1480
  2941  007A44                     u1110:
  2942  007A44  502F               	movf	___fldiv@rem^0,w,c
  2943  007A46  1030               	iorwf	(___fldiv@rem+1)^0,w,c
  2944  007A48  1031               	iorwf	(___fldiv@rem+2)^0,w,c
  2945  007A4A  1032               	iorwf	(___fldiv@rem+3)^0,w,c
  2946  007A4C  B4D8               	btfsc	status,2,c
  2947  007A4E  EF2B  F03D         	goto	u1121
  2948  007A52  EF2D  F03D         	goto	u1120
  2949  007A56                     u1121:
  2950  007A56  EF45  F03D         	goto	l1506
  2951  007A5A                     u1120:
  2952  007A5A  8036               	bsf	___fldiv@grs^0,0,c
  2953  007A5C  EF45  F03D         	goto	l1506
  2954  007A60                     l1500:
  2955  007A60  90D8               	bcf	status,0,c
  2956  007A62  3623               	rlcf	___fldiv@b^0,f,c
  2957  007A64  3624               	rlcf	(___fldiv@b+1)^0,f,c
  2958  007A66  3625               	rlcf	(___fldiv@b+2)^0,f,c
  2959  007A68  3626               	rlcf	(___fldiv@b+3)^0,f,c
  2960  007A6A  AE39               	btfss	(___fldiv@grs+3)^0,7,c
  2961  007A6C  EF3A  F03D         	goto	u1131
  2962  007A70  EF3C  F03D         	goto	u1130
  2963  007A74                     u1131:
  2964  007A74  EF3D  F03D         	goto	l694
  2965  007A78                     u1130:
  2966  007A78  8023               	bsf	___fldiv@b^0,0,c
  2967  007A7A                     l694:
  2968  007A7A  90D8               	bcf	status,0,c
  2969  007A7C  3636               	rlcf	___fldiv@grs^0,f,c
  2970  007A7E  3637               	rlcf	(___fldiv@grs+1)^0,f,c
  2971  007A80  3638               	rlcf	(___fldiv@grs+2)^0,f,c
  2972  007A82  3639               	rlcf	(___fldiv@grs+3)^0,f,c
  2973  007A84  0634               	decf	___fldiv@new_exp^0,f,c
  2974  007A86  A0D8               	btfss	status,0,c
  2975  007A88  0635               	decf	(___fldiv@new_exp+1)^0,f,c
  2976  007A8A                     l1506:
  2977  007A8A  AE25               	btfss	(___fldiv@b+2)^0,7,c
  2978  007A8C  EF4A  F03D         	goto	u1141
  2979  007A90  EF4C  F03D         	goto	u1140
  2980  007A94                     u1141:
  2981  007A94  EF30  F03D         	goto	l1500
  2982  007A98                     u1140:
  2983  007A98  0E00               	movlw	0
  2984  007A9A  6E3B               	movwf	___fldiv@aexp^0,c
  2985  007A9C  AE39               	btfss	(___fldiv@grs+3)^0,7,c
  2986  007A9E  EF53  F03D         	goto	u1151
  2987  007AA2  EF55  F03D         	goto	u1150
  2988  007AA6                     u1151:
  2989  007AA6  EF79  F03D         	goto	l696
  2990  007AAA                     u1150:
  2991  007AAA  0EFF               	movlw	255
  2992  007AAC  1436               	andwf	___fldiv@grs^0,w,c
  2993  007AAE  6E2B               	movwf	??___fldiv^0,c
  2994  007AB0  0EFF               	movlw	255
  2995  007AB2  1437               	andwf	(___fldiv@grs+1)^0,w,c
  2996  007AB4  6E2C               	movwf	(??___fldiv+1)^0,c
  2997  007AB6  0EFF               	movlw	255
  2998  007AB8  1438               	andwf	(___fldiv@grs+2)^0,w,c
  2999  007ABA  6E2D               	movwf	(??___fldiv+2)^0,c
  3000  007ABC  0E7F               	movlw	127
  3001  007ABE  1439               	andwf	(___fldiv@grs+3)^0,w,c
  3002  007AC0  6E2E               	movwf	(??___fldiv+3)^0,c
  3003  007AC2  502B               	movf	??___fldiv^0,w,c
  3004  007AC4  102C               	iorwf	(??___fldiv+1)^0,w,c
  3005  007AC6  102D               	iorwf	(??___fldiv+2)^0,w,c
  3006  007AC8  102E               	iorwf	(??___fldiv+3)^0,w,c
  3007  007ACA  B4D8               	btfsc	status,2,c
  3008  007ACC  EF6A  F03D         	goto	u1161
  3009  007AD0  EF6C  F03D         	goto	u1160
  3010  007AD4                     u1161:
  3011  007AD4  EF70  F03D         	goto	l697
  3012  007AD8                     u1160:
  3013  007AD8                     l1514:
  3014  007AD8  0E01               	movlw	1
  3015  007ADA  6E3B               	movwf	___fldiv@aexp^0,c
  3016  007ADC  EF79  F03D         	goto	l696
  3017  007AE0                     l697:
  3018  007AE0  A023               	btfss	___fldiv@b^0,0,c
  3019  007AE2  EF75  F03D         	goto	u1171
  3020  007AE6  EF77  F03D         	goto	u1170
  3021  007AEA                     u1171:
  3022  007AEA  EF79  F03D         	goto	l696
  3023  007AEE                     u1170:
  3024  007AEE  EF6C  F03D         	goto	l1514
  3025  007AF2                     l696:
  3026  007AF2  503B               	movf	___fldiv@aexp^0,w,c
  3027  007AF4  B4D8               	btfsc	status,2,c
  3028  007AF6  EF7F  F03D         	goto	u1181
  3029  007AFA  EF81  F03D         	goto	u1180
  3030  007AFE                     u1181:
  3031  007AFE  EFA5  F03D         	goto	l1526
  3032  007B02                     u1180:
  3033  007B02  0E01               	movlw	1
  3034  007B04  2623               	addwf	___fldiv@b^0,f,c
  3035  007B06  0E00               	movlw	0
  3036  007B08  2224               	addwfc	(___fldiv@b+1)^0,f,c
  3037  007B0A  2225               	addwfc	(___fldiv@b+2)^0,f,c
  3038  007B0C  2226               	addwfc	(___fldiv@b+3)^0,f,c
  3039  007B0E  A026               	btfss	(___fldiv@b+3)^0,0,c
  3040  007B10  EF8C  F03D         	goto	u1191
  3041  007B14  EF8E  F03D         	goto	u1190
  3042  007B18                     u1191:
  3043  007B18  EFA5  F03D         	goto	l1526
  3044  007B1C                     u1190:
  3045  007B1C  C023  F02B         	movff	___fldiv@b,??___fldiv
  3046  007B20  C024  F02C         	movff	___fldiv@b+1,??___fldiv+1
  3047  007B24  C025  F02D         	movff	___fldiv@b+2,??___fldiv+2
  3048  007B28  C026  F02E         	movff	___fldiv@b+3,??___fldiv+3
  3049  007B2C  342E               	rlcf	(??___fldiv+3)^0,w,c
  3050  007B2E  322E               	rrcf	(??___fldiv+3)^0,f,c
  3051  007B30  322D               	rrcf	(??___fldiv+2)^0,f,c
  3052  007B32  322C               	rrcf	(??___fldiv+1)^0,f,c
  3053  007B34  322B               	rrcf	??___fldiv^0,f,c
  3054  007B36  C02B  F023         	movff	??___fldiv,___fldiv@b
  3055  007B3A  C02C  F024         	movff	??___fldiv+1,___fldiv@b+1
  3056  007B3E  C02D  F025         	movff	??___fldiv+2,___fldiv@b+2
  3057  007B42  C02E  F026         	movff	??___fldiv+3,___fldiv@b+3
  3058  007B46  4A34               	infsnz	___fldiv@new_exp^0,f,c
  3059  007B48  2A35               	incf	(___fldiv@new_exp+1)^0,f,c
  3060  007B4A                     l1526:
  3061  007B4A  BE35               	btfsc	(___fldiv@new_exp+1)^0,7,c
  3062  007B4C  EFB0  F03D         	goto	u1201
  3063  007B50  5035               	movf	(___fldiv@new_exp+1)^0,w,c
  3064  007B52  E108               	bnz	u1200
  3065  007B54  2834               	incf	___fldiv@new_exp^0,w,c
  3066  007B56  A0D8               	btfss	status,0,c
  3067  007B58  EFB0  F03D         	goto	u1201
  3068  007B5C  EFB2  F03D         	goto	u1200
  3069  007B60                     u1201:
  3070  007B60  EFBD  F03D         	goto	l1530
  3071  007B64                     u1200:
  3072  007B64  0E00               	movlw	0
  3073  007B66  6E35               	movwf	(___fldiv@new_exp+1)^0,c
  3074  007B68  6834               	setf	___fldiv@new_exp^0,c
  3075  007B6A  0E00               	movlw	0
  3076  007B6C  6E23               	movwf	___fldiv@b^0,c
  3077  007B6E  0E00               	movlw	0
  3078  007B70  6E24               	movwf	(___fldiv@b+1)^0,c
  3079  007B72  0E00               	movlw	0
  3080  007B74  6E25               	movwf	(___fldiv@b+2)^0,c
  3081  007B76  0E00               	movlw	0
  3082  007B78  6E26               	movwf	(___fldiv@b+3)^0,c
  3083  007B7A                     l1530:
  3084  007B7A  BE35               	btfsc	(___fldiv@new_exp+1)^0,7,c
  3085  007B7C  EFCA  F03D         	goto	u1210
  3086  007B80  5035               	movf	(___fldiv@new_exp+1)^0,w,c
  3087  007B82  E106               	bnz	u1211
  3088  007B84  0434               	decf	___fldiv@new_exp^0,w,c
  3089  007B86  B0D8               	btfsc	status,0,c
  3090  007B88  EFC8  F03D         	goto	u1211
  3091  007B8C  EFCA  F03D         	goto	u1210
  3092  007B90                     u1211:
  3093  007B90  EFD8  F03D         	goto	l1534
  3094  007B94                     u1210:
  3095  007B94  0E00               	movlw	0
  3096  007B96  6E35               	movwf	(___fldiv@new_exp+1)^0,c
  3097  007B98  0E00               	movlw	0
  3098  007B9A  6E34               	movwf	___fldiv@new_exp^0,c
  3099  007B9C  0E00               	movlw	0
  3100  007B9E  6E23               	movwf	___fldiv@b^0,c
  3101  007BA0  0E00               	movlw	0
  3102  007BA2  6E24               	movwf	(___fldiv@b+1)^0,c
  3103  007BA4  0E00               	movlw	0
  3104  007BA6  6E25               	movwf	(___fldiv@b+2)^0,c
  3105  007BA8  0E00               	movlw	0
  3106  007BAA  6E26               	movwf	(___fldiv@b+3)^0,c
  3107  007BAC  0E00               	movlw	0
  3108  007BAE  6E33               	movwf	___fldiv@sign^0,c
  3109  007BB0                     l1534:
  3110  007BB0  C034  F03A         	movff	___fldiv@new_exp,___fldiv@bexp
  3111  007BB4  A03A               	btfss	___fldiv@bexp^0,0,c
  3112  007BB6  EFDF  F03D         	goto	u1221
  3113  007BBA  EFE1  F03D         	goto	u1220
  3114  007BBE                     u1221:
  3115  007BBE  EFE4  F03D         	goto	l1540
  3116  007BC2                     u1220:
  3117  007BC2  8E25               	bsf	(___fldiv@b+2)^0,7,c
  3118  007BC4  EFE5  F03D         	goto	l1542
  3119  007BC8                     l1540:
  3120  007BC8  9E25               	bcf	(___fldiv@b+2)^0,7,c
  3121  007BCA                     l1542:
  3122  007BCA  90D8               	bcf	status,0,c
  3123  007BCC  303A               	rrcf	___fldiv@bexp^0,w,c
  3124  007BCE  6E26               	movwf	(___fldiv@b+3)^0,c
  3125  007BD0  EF9B  F03C         	goto	l1456
  3126  007BD4                     l683:
  3127  007BD4  0012               	return		;funcret
  3128  007BD6                     __end_of___fldiv:
  3129                           	callstack 0
  3130                           
  3131 ;; *************** function ___aldiv *****************
  3132 ;; Defined at:
  3133 ;;		line 7 in file "C:\Program Files\Microchip\xc8\v2.32\pic\sources\c99\common\aldiv.c"
  3134 ;; Parameters:    Size  Location     Type
  3135 ;;  dividend        4    6[COMRAM] long 
  3136 ;;  divisor         4   10[COMRAM] long 
  3137 ;; Auto vars:     Size  Location     Type
  3138 ;;  quotient        4   16[COMRAM] long 
  3139 ;;  sign            1   15[COMRAM] unsigned char 
  3140 ;;  counter         1   14[COMRAM] unsigned char 
  3141 ;; Return value:  Size  Location     Type
  3142 ;;                  4    6[COMRAM] long 
  3143 ;; Registers used:
  3144 ;;		wreg, status,2, status,0
  3145 ;; Tracked objects:
  3146 ;;		On entry : 0/0
  3147 ;;		On exit  : 0/0
  3148 ;;		Unchanged: 0/0
  3149 ;; Data sizes:     COMRAM   BANK0   BANK1   BANK2   BANK3   BANK4   BANK5   BANK6   BANK7
  3150 ;;      Params:         8       0       0       0       0       0       0       0       0
  3151 ;;      Locals:         6       0       0       0       0       0       0       0       0
  3152 ;;      Temps:          0       0       0       0       0       0       0       0       0
  3153 ;;      Totals:        14       0       0       0       0       0       0       0       0
  3154 ;;Total ram usage:       14 bytes
  3155 ;; Hardware stack levels used: 1
  3156 ;; This function calls:
  3157 ;;		Nothing
  3158 ;; This function is called by:
  3159 ;;		_PWM_Initialize
  3160 ;;		_PWM_Duty
  3161 ;; This function uses a non-reentrant model
  3162 ;;
  3163                           
  3164                           	psect	text12
  3165  00714A                     __ptext12:
  3166                           	callstack 0
  3167  00714A                     ___aldiv:
  3168                           	callstack 29
  3169  00714A  0E00               	movlw	0
  3170  00714C  6E10               	movwf	___aldiv@sign^0,c
  3171  00714E  BE0E               	btfsc	(___aldiv@divisor+3)^0,7,c
  3172  007150  EFAE  F038         	goto	u940
  3173  007154  EFAC  F038         	goto	u941
  3174  007158                     u941:
  3175  007158  EFB8  F038         	goto	l1376
  3176  00715C                     u940:
  3177  00715C  1E0E               	comf	(___aldiv@divisor+3)^0,f,c
  3178  00715E  1E0D               	comf	(___aldiv@divisor+2)^0,f,c
  3179  007160  1E0C               	comf	(___aldiv@divisor+1)^0,f,c
  3180  007162  6C0B               	negf	___aldiv@divisor^0,c
  3181  007164  0E00               	movlw	0
  3182  007166  220C               	addwfc	(___aldiv@divisor+1)^0,f,c
  3183  007168  220D               	addwfc	(___aldiv@divisor+2)^0,f,c
  3184  00716A  220E               	addwfc	(___aldiv@divisor+3)^0,f,c
  3185  00716C  0E01               	movlw	1
  3186  00716E  6E10               	movwf	___aldiv@sign^0,c
  3187  007170                     l1376:
  3188  007170  BE0A               	btfsc	(___aldiv@dividend+3)^0,7,c
  3189  007172  EFBF  F038         	goto	u950
  3190  007176  EFBD  F038         	goto	u951
  3191  00717A                     u951:
  3192  00717A  EFC9  F038         	goto	l1382
  3193  00717E                     u950:
  3194  00717E  1E0A               	comf	(___aldiv@dividend+3)^0,f,c
  3195  007180  1E09               	comf	(___aldiv@dividend+2)^0,f,c
  3196  007182  1E08               	comf	(___aldiv@dividend+1)^0,f,c
  3197  007184  6C07               	negf	___aldiv@dividend^0,c
  3198  007186  0E00               	movlw	0
  3199  007188  2208               	addwfc	(___aldiv@dividend+1)^0,f,c
  3200  00718A  2209               	addwfc	(___aldiv@dividend+2)^0,f,c
  3201  00718C  220A               	addwfc	(___aldiv@dividend+3)^0,f,c
  3202  00718E  0E01               	movlw	1
  3203  007190  1A10               	xorwf	___aldiv@sign^0,f,c
  3204  007192                     l1382:
  3205  007192  0E00               	movlw	0
  3206  007194  6E11               	movwf	___aldiv@quotient^0,c
  3207  007196  0E00               	movlw	0
  3208  007198  6E12               	movwf	(___aldiv@quotient+1)^0,c
  3209  00719A  0E00               	movlw	0
  3210  00719C  6E13               	movwf	(___aldiv@quotient+2)^0,c
  3211  00719E  0E00               	movlw	0
  3212  0071A0  6E14               	movwf	(___aldiv@quotient+3)^0,c
  3213  0071A2  500B               	movf	___aldiv@divisor^0,w,c
  3214  0071A4  100C               	iorwf	(___aldiv@divisor+1)^0,w,c
  3215  0071A6  100D               	iorwf	(___aldiv@divisor+2)^0,w,c
  3216  0071A8  100E               	iorwf	(___aldiv@divisor+3)^0,w,c
  3217  0071AA  B4D8               	btfsc	status,2,c
  3218  0071AC  EFDA  F038         	goto	u961
  3219  0071B0  EFDC  F038         	goto	u960
  3220  0071B4                     u961:
  3221  0071B4  EF12  F039         	goto	l1404
  3222  0071B8                     u960:
  3223  0071B8  0E01               	movlw	1
  3224  0071BA  6E0F               	movwf	___aldiv@counter^0,c
  3225  0071BC  EFE6  F038         	goto	l1390
  3226  0071C0                     l1388:
  3227  0071C0  90D8               	bcf	status,0,c
  3228  0071C2  360B               	rlcf	___aldiv@divisor^0,f,c
  3229  0071C4  360C               	rlcf	(___aldiv@divisor+1)^0,f,c
  3230  0071C6  360D               	rlcf	(___aldiv@divisor+2)^0,f,c
  3231  0071C8  360E               	rlcf	(___aldiv@divisor+3)^0,f,c
  3232  0071CA  2A0F               	incf	___aldiv@counter^0,f,c
  3233  0071CC                     l1390:
  3234  0071CC  AE0E               	btfss	(___aldiv@divisor+3)^0,7,c
  3235  0071CE  EFEB  F038         	goto	u971
  3236  0071D2  EFED  F038         	goto	u970
  3237  0071D6                     u971:
  3238  0071D6  EFE0  F038         	goto	l1388
  3239  0071DA                     u970:
  3240  0071DA                     l1392:
  3241  0071DA  90D8               	bcf	status,0,c
  3242  0071DC  3611               	rlcf	___aldiv@quotient^0,f,c
  3243  0071DE  3612               	rlcf	(___aldiv@quotient+1)^0,f,c
  3244  0071E0  3613               	rlcf	(___aldiv@quotient+2)^0,f,c
  3245  0071E2  3614               	rlcf	(___aldiv@quotient+3)^0,f,c
  3246  0071E4  500B               	movf	___aldiv@divisor^0,w,c
  3247  0071E6  5C07               	subwf	___aldiv@dividend^0,w,c
  3248  0071E8  500C               	movf	(___aldiv@divisor+1)^0,w,c
  3249  0071EA  5808               	subwfb	(___aldiv@dividend+1)^0,w,c
  3250  0071EC  500D               	movf	(___aldiv@divisor+2)^0,w,c
  3251  0071EE  5809               	subwfb	(___aldiv@dividend+2)^0,w,c
  3252  0071F0  500E               	movf	(___aldiv@divisor+3)^0,w,c
  3253  0071F2  580A               	subwfb	(___aldiv@dividend+3)^0,w,c
  3254  0071F4  A0D8               	btfss	status,0,c
  3255  0071F6  EFFF  F038         	goto	u981
  3256  0071FA  EF01  F039         	goto	u980
  3257  0071FE                     u981:
  3258  0071FE  EF0A  F039         	goto	l1400
  3259  007202                     u980:
  3260  007202  500B               	movf	___aldiv@divisor^0,w,c
  3261  007204  5E07               	subwf	___aldiv@dividend^0,f,c
  3262  007206  500C               	movf	(___aldiv@divisor+1)^0,w,c
  3263  007208  5A08               	subwfb	(___aldiv@dividend+1)^0,f,c
  3264  00720A  500D               	movf	(___aldiv@divisor+2)^0,w,c
  3265  00720C  5A09               	subwfb	(___aldiv@dividend+2)^0,f,c
  3266  00720E  500E               	movf	(___aldiv@divisor+3)^0,w,c
  3267  007210  5A0A               	subwfb	(___aldiv@dividend+3)^0,f,c
  3268  007212  8011               	bsf	___aldiv@quotient^0,0,c
  3269  007214                     l1400:
  3270  007214  90D8               	bcf	status,0,c
  3271  007216  320E               	rrcf	(___aldiv@divisor+3)^0,f,c
  3272  007218  320D               	rrcf	(___aldiv@divisor+2)^0,f,c
  3273  00721A  320C               	rrcf	(___aldiv@divisor+1)^0,f,c
  3274  00721C  320B               	rrcf	___aldiv@divisor^0,f,c
  3275  00721E  2E0F               	decfsz	___aldiv@counter^0,f,c
  3276  007220  EFED  F038         	goto	l1392
  3277  007224                     l1404:
  3278  007224  5010               	movf	___aldiv@sign^0,w,c
  3279  007226  B4D8               	btfsc	status,2,c
  3280  007228  EF18  F039         	goto	u991
  3281  00722C  EF1A  F039         	goto	u990
  3282  007230                     u991:
  3283  007230  EF22  F039         	goto	l1408
  3284  007234                     u990:
  3285  007234  1E14               	comf	(___aldiv@quotient+3)^0,f,c
  3286  007236  1E13               	comf	(___aldiv@quotient+2)^0,f,c
  3287  007238  1E12               	comf	(___aldiv@quotient+1)^0,f,c
  3288  00723A  6C11               	negf	___aldiv@quotient^0,c
  3289  00723C  0E00               	movlw	0
  3290  00723E  2212               	addwfc	(___aldiv@quotient+1)^0,f,c
  3291  007240  2213               	addwfc	(___aldiv@quotient+2)^0,f,c
  3292  007242  2214               	addwfc	(___aldiv@quotient+3)^0,f,c
  3293  007244                     l1408:
  3294  007244  C011  F007         	movff	___aldiv@quotient,?___aldiv
  3295  007248  C012  F008         	movff	___aldiv@quotient+1,?___aldiv+1
  3296  00724C  C013  F009         	movff	___aldiv@quotient+2,?___aldiv+2
  3297  007250  C014  F00A         	movff	___aldiv@quotient+3,?___aldiv+3
  3298  007254  0012               	return		;funcret
  3299  007256                     __end_of___aldiv:
  3300                           	callstack 0
  3301  0000                     
  3302                           	psect	rparam
  3303  0000                     
  3304                           	psect	idloc
  3305                           
  3306                           ;Config register IDLOC0 @ 0x200000
  3307                           ;	unspecified, using default values
  3308  200000                     	org	2097152
  3309  200000  FF                 	db	255
  3310                           
  3311                           ;Config register IDLOC1 @ 0x200001
  3312                           ;	unspecified, using default values
  3313  200001                     	org	2097153
  3314  200001  FF                 	db	255
  3315                           
  3316                           ;Config register IDLOC2 @ 0x200002
  3317                           ;	unspecified, using default values
  3318  200002                     	org	2097154
  3319  200002  FF                 	db	255
  3320                           
  3321                           ;Config register IDLOC3 @ 0x200003
  3322                           ;	unspecified, using default values
  3323  200003                     	org	2097155
  3324  200003  FF                 	db	255
  3325                           
  3326                           ;Config register IDLOC4 @ 0x200004
  3327                           ;	unspecified, using default values
  3328  200004                     	org	2097156
  3329  200004  FF                 	db	255
  3330                           
  3331                           ;Config register IDLOC5 @ 0x200005
  3332                           ;	unspecified, using default values
  3333  200005                     	org	2097157
  3334  200005  FF                 	db	255
  3335                           
  3336                           ;Config register IDLOC6 @ 0x200006
  3337                           ;	unspecified, using default values
  3338  200006                     	org	2097158
  3339  200006  FF                 	db	255
  3340                           
  3341                           ;Config register IDLOC7 @ 0x200007
  3342                           ;	unspecified, using default values
  3343  200007                     	org	2097159
  3344  200007  FF                 	db	255
  3345                           
  3346                           	psect	config
  3347                           
  3348                           ;Config register CONFIG1L @ 0x300000
  3349                           ;	unspecified, using default values
  3350                           ;	PLL Selection
  3351                           ;	PLLSEL = 0x0, unprogrammed default
  3352                           ;	PLL Enable Configuration bit
  3353                           ;	CFGPLLEN = 0x0, unprogrammed default
  3354                           ;	CPU System Clock Postscaler
  3355                           ;	CPUDIV = 0x0, unprogrammed default
  3356                           ;	Low Speed USB mode with 48 MHz system clock
  3357                           ;	LS48MHZ = 0x0, unprogrammed default
  3358  300000                     	org	3145728
  3359  300000  00                 	db	0
  3360                           
  3361                           ;Config register CONFIG1H @ 0x300001
  3362                           ;	unspecified, using default values
  3363                           ;	Oscillator Selection
  3364                           ;	FOSC = 0x5, unprogrammed default
  3365                           ;	Primary Oscillator Shutdown
  3366                           ;	PCLKEN = 0x1, unprogrammed default
  3367                           ;	Fail-Safe Clock Monitor
  3368                           ;	FCMEN = 0x0, unprogrammed default
  3369                           ;	Internal/External Oscillator Switchover
  3370                           ;	IESO = 0x0, unprogrammed default
  3371  300001                     	org	3145729
  3372  300001  25                 	db	37
  3373                           
  3374                           ;Config register CONFIG2L @ 0x300002
  3375                           ;	unspecified, using default values
  3376                           ;	Power-up Timer Enable
  3377                           ;	nPWRTEN = 0x1, unprogrammed default
  3378                           ;	Brown-out Reset Enable
  3379                           ;	BOREN = 0x3, unprogrammed default
  3380                           ;	Brown-out Reset Voltage
  3381                           ;	BORV = 0x3, unprogrammed default
  3382                           ;	Low-Power Brown-out Reset
  3383                           ;	nLPBOR = 0x1, unprogrammed default
  3384  300002                     	org	3145730
  3385  300002  5F                 	db	95
  3386                           
  3387                           ;Config register CONFIG2H @ 0x300003
  3388                           ;	unspecified, using default values
  3389                           ;	Watchdog Timer Enable bits
  3390                           ;	WDTEN = 0x3, unprogrammed default
  3391                           ;	Watchdog Timer Postscaler
  3392                           ;	WDTPS = 0xF, unprogrammed default
  3393  300003                     	org	3145731
  3394  300003  3F                 	db	63
  3395                           
  3396                           ; Padding undefined space
  3397  300004                     	org	3145732
  3398  300004  FF                 	db	255
  3399                           
  3400                           ;Config register CONFIG3H @ 0x300005
  3401                           ;	unspecified, using default values
  3402                           ;	CCP2 MUX bit
  3403                           ;	CCP2MX = 0x1, unprogrammed default
  3404                           ;	PORTB A/D Enable bit
  3405                           ;	PBADEN = 0x1, unprogrammed default
  3406                           ;	Timer3 Clock Input MUX bit
  3407                           ;	T3CMX = 0x1, unprogrammed default
  3408                           ;	SDO Output MUX bit
  3409                           ;	SDOMX = 0x1, unprogrammed default
  3410                           ;	Master Clear Reset Pin Enable
  3411                           ;	MCLRE = 0x1, unprogrammed default
  3412  300005                     	org	3145733
  3413  300005  D3                 	db	211
  3414                           
  3415                           ;Config register CONFIG4L @ 0x300006
  3416                           ;	unspecified, using default values
  3417                           ;	Stack Full/Underflow Reset
  3418                           ;	STVREN = 0x1, unprogrammed default
  3419                           ;	Single-Supply ICSP Enable bit
  3420                           ;	LVP = 0x1, unprogrammed default
  3421                           ;	Dedicated In-Circuit Debug/Programming Port Enable
  3422                           ;	ICPRT = 0x0, unprogrammed default
  3423                           ;	Extended Instruction Set Enable bit
  3424                           ;	XINST = 0x0, unprogrammed default
  3425                           ;	Background Debugger Enable bit
  3426                           ;	DEBUG = 0x1, unprogrammed default
  3427  300006                     	org	3145734
  3428  300006  85                 	db	133
  3429                           
  3430                           ; Padding undefined space
  3431  300007                     	org	3145735
  3432  300007  FF                 	db	255
  3433                           
  3434                           ;Config register CONFIG5L @ 0x300008
  3435                           ;	unspecified, using default values
  3436                           ;	Block 0 Code Protect
  3437                           ;	CP0 = 0x1, unprogrammed default
  3438                           ;	Block 1 Code Protect
  3439                           ;	CP1 = 0x1, unprogrammed default
  3440                           ;	Block 2 Code Protect
  3441                           ;	CP2 = 0x1, unprogrammed default
  3442                           ;	Block 3 Code Protect
  3443                           ;	CP3 = 0x1, unprogrammed default
  3444  300008                     	org	3145736
  3445  300008  0F                 	db	15
  3446                           
  3447                           ;Config register CONFIG5H @ 0x300009
  3448                           ;	unspecified, using default values
  3449                           ;	Boot Block Code Protect
  3450                           ;	CPB = 0x1, unprogrammed default
  3451                           ;	Data EEPROM Code Protect
  3452                           ;	CPD = 0x1, unprogrammed default
  3453  300009                     	org	3145737
  3454  300009  C0                 	db	192
  3455                           
  3456                           ;Config register CONFIG6L @ 0x30000A
  3457                           ;	unspecified, using default values
  3458                           ;	Block 0 Write Protect
  3459                           ;	WRT0 = 0x1, unprogrammed default
  3460                           ;	Block 1 Write Protect
  3461                           ;	WRT1 = 0x1, unprogrammed default
  3462                           ;	Block 2 Write Protect
  3463                           ;	WRT2 = 0x1, unprogrammed default
  3464                           ;	Block 3 Write Protect
  3465                           ;	WRT3 = 0x1, unprogrammed default
  3466  30000A                     	org	3145738
  3467  30000A  0F                 	db	15
  3468                           
  3469                           ;Config register CONFIG6H @ 0x30000B
  3470                           ;	unspecified, using default values
  3471                           ;	Configuration Registers Write Protect
  3472                           ;	WRTC = 0x1, unprogrammed default
  3473                           ;	Boot Block Write Protect
  3474                           ;	WRTB = 0x1, unprogrammed default
  3475                           ;	Data EEPROM Write Protect
  3476                           ;	WRTD = 0x1, unprogrammed default
  3477  30000B                     	org	3145739
  3478  30000B  E0                 	db	224
  3479                           
  3480                           ;Config register CONFIG7L @ 0x30000C
  3481                           ;	unspecified, using default values
  3482                           ;	Block 0 Table Read Protect
  3483                           ;	EBTR0 = 0x1, unprogrammed default
  3484                           ;	Block 1 Table Read Protect
  3485                           ;	EBTR1 = 0x1, unprogrammed default
  3486                           ;	Block 2 Table Read Protect
  3487                           ;	EBTR2 = 0x1, unprogrammed default
  3488                           ;	Block 3 Table Read Protect
  3489                           ;	EBTR3 = 0x1, unprogrammed default
  3490  30000C                     	org	3145740
  3491  30000C  0F                 	db	15
  3492                           
  3493                           ;Config register CONFIG7H @ 0x30000D
  3494                           ;	unspecified, using default values
  3495                           ;	Boot Block Table Read Protect
  3496                           ;	EBTRB = 0x1, unprogrammed default
  3497  30000D                     	org	3145741
  3498  30000D  40                 	db	64
  3499                           tosu	equ	0xFFF
  3500                           tosh	equ	0xFFE
  3501                           tosl	equ	0xFFD
  3502                           stkptr	equ	0xFFC
  3503                           pclatu	equ	0xFFB
  3504                           pclath	equ	0xFFA
  3505                           pcl	equ	0xFF9
  3506                           tblptru	equ	0xFF8
  3507                           tblptrh	equ	0xFF7
  3508                           tblptrl	equ	0xFF6
  3509                           tablat	equ	0xFF5
  3510                           prodh	equ	0xFF4
  3511                           prodl	equ	0xFF3
  3512                           indf0	equ	0xFEF
  3513                           postinc0	equ	0xFEE
  3514                           postdec0	equ	0xFED
  3515                           preinc0	equ	0xFEC
  3516                           plusw0	equ	0xFEB
  3517                           fsr0h	equ	0xFEA
  3518                           fsr0l	equ	0xFE9
  3519                           wreg	equ	0xFE8
  3520                           indf1	equ	0xFE7
  3521                           postinc1	equ	0xFE6
  3522                           postdec1	equ	0xFE5
  3523                           preinc1	equ	0xFE4
  3524                           plusw1	equ	0xFE3
  3525                           fsr1h	equ	0xFE2
  3526                           fsr1l	equ	0xFE1
  3527                           bsr	equ	0xFE0
  3528                           indf2	equ	0xFDF
  3529                           postinc2	equ	0xFDE
  3530                           postdec2	equ	0xFDD
  3531                           preinc2	equ	0xFDC
  3532                           plusw2	equ	0xFDB
  3533                           fsr2h	equ	0xFDA
  3534                           fsr2l	equ	0xFD9
  3535                           status	equ	0xFD8

Data Sizes:
    Strings     0
    Constant    0
    Data        2
    BSS         90
    Persistent  0
    Stack       0

Auto Spaces:
    Space          Size  Autos    Used
    COMRAM           95     95      95
    BANK0           160     16     108
    BANK1           256      0       0
    BANK2           256      0       0
    BANK3           256      0       0
    BANK4           256      0       0
    BANK5           256      0       0
    BANK6           256      0       0
    BANK7           256      0       0

Pointer List with Targets:

    None.

Critical Paths under _main in COMRAM

    _oneShot->_TON
    ___llmod->_millis
    _TON->_millis
    _PWM_Initialize->___aldiv
    _PWM_Duty->___fltol
    ___xxtofl->___aldiv
    ___fltol->___flmul
    ___flmul->___fldiv
    ___fldiv->___xxtofl
    ___aldiv->___wmul

Critical Paths under _main in BANK0

    _main->_PWM_Duty

Critical Paths under _main in BANK1

    None.

Critical Paths under _main in BANK2

    None.

Critical Paths under _main in BANK3

    None.

Critical Paths under _main in BANK4

    None.

Critical Paths under _main in BANK5

    None.

Critical Paths under _main in BANK6

    None.

Critical Paths under _main in BANK7

    None.

Call Graph Tables:

 ---------------------------------------------------------------------------------
 (Depth) Function   	        Calls       Base Space   Used Autos Params    Refs
 ---------------------------------------------------------------------------------
 (0) _main                                                13    13      0    9393
                                             94 COMRAM     1     1      0
                                              4 BANK0     12    12      0
                           _PWM_Duty
                     _PWM_Initialize
                                _TON
                            ___llmod
                             ___wmul
                             _millis
                            _oneShot
 ---------------------------------------------------------------------------------
 (1) _oneShot                                              6     2      4     436
                                             24 COMRAM     6     2      4
                                _TON (ARG)
                            ___llmod (ARG)
                             _millis (ARG)
 ---------------------------------------------------------------------------------
 (1) ___llmod                                              9     1      8     311
                                              4 COMRAM     9     1      8
                             _millis (ARG)
 ---------------------------------------------------------------------------------
 (1) _TON                                                 20    14      6     720
                                              4 COMRAM    20    14      6
                             _millis
 ---------------------------------------------------------------------------------
 (1) _millis                                               4     0      4       0
                                              0 COMRAM     4     0      4
 ---------------------------------------------------------------------------------
 (1) _PWM_Initialize                                       2     2      0    1371
                                             20 COMRAM     2     2      0
                            ___aldiv
                             ___wmul
 ---------------------------------------------------------------------------------
 (1) _PWM_Duty                                             4     2      2    5534
                                              0 BANK0      4     2      2
                            ___aldiv
                            ___fldiv
                            ___flmul
                            ___fltol
                             ___wmul
                           ___xxtofl
 ---------------------------------------------------------------------------------
 (2) ___xxtofl                                            14    10      4     474
                                             20 COMRAM    14    10      4
                            ___aldiv (ARG)
                             ___wmul (ARG)
 ---------------------------------------------------------------------------------
 (1) ___wmul                                               6     2      4     767
                                              0 COMRAM     6     2      4
 ---------------------------------------------------------------------------------
 (2) ___fltol                                             10     6      4     305
                                             84 COMRAM    10     6      4
                            ___aldiv (ARG)
                            ___fldiv (ARG)
                            ___flmul (ARG)
                             ___wmul (ARG)
                           ___xxtofl (ARG)
 ---------------------------------------------------------------------------------
 (2) ___flmul                                             25    17      8    1744
                                             59 COMRAM    25    17      8
                            ___aldiv (ARG)
                            ___fldiv (ARG)
                             ___wmul (ARG)
                           ___xxtofl (ARG)
 ---------------------------------------------------------------------------------
 (2) ___fldiv                                             25    17      8    1399
                                             34 COMRAM    25    17      8
                           ___xxtofl (ARG)
 ---------------------------------------------------------------------------------
 (2) ___aldiv                                             14     6      8     604
                                              6 COMRAM    14     6      8
                             ___wmul (ARG)
 ---------------------------------------------------------------------------------
 Estimated maximum stack depth 2
 ---------------------------------------------------------------------------------

 Call Graph Graphs:

 _main (ROOT)
   _PWM_Duty
     ___aldiv
       ___wmul (ARG)
     ___fldiv
       ___xxtofl (ARG)
         ___aldiv (ARG)
         ___wmul (ARG)
     ___flmul
       ___aldiv (ARG)
       ___fldiv (ARG)
       ___wmul (ARG)
       ___xxtofl (ARG)
     ___fltol
       ___aldiv (ARG)
       ___fldiv (ARG)
       ___flmul (ARG)
       ___wmul (ARG)
       ___xxtofl (ARG)
     ___wmul
     ___xxtofl
   _PWM_Initialize
     ___aldiv
     ___wmul
   _TON
     _millis
   ___llmod
     _millis (ARG)
   ___wmul
   _millis
   _oneShot
     _TON (ARG)
     ___llmod (ARG)
     _millis (ARG)

 Address spaces:
Name               Size   Autos  Total    Cost      Usage
BIGRAM             7FF      0       0      21        0.0%
EEDATA             100      0       0       0        0.0%
BITBANK7           100      0       0      19        0.0%
BANK7              100      0       0      20        0.0%
BITBANK6           100      0       0      17        0.0%
BANK6              100      0       0      18        0.0%
BITBANK5           100      0       0      15        0.0%
BANK5              100      0       0      16        0.0%
BITBANK4           100      0       0      13        0.0%
BANK4              100      0       0      14        0.0%
BITBANK3           100      0       0      11        0.0%
BANK3              100      0       0      12        0.0%
BITBANK2           100      0       0       9        0.0%
BANK2              100      0       0      10        0.0%
BITBANK1           100      0       0       7        0.0%
BANK1              100      0       0       8        0.0%
BITBANK0            A0      0       0       4        0.0%
BANK0               A0     10      6C       5       67.5%
BITCOMRAM           5F      0       0       0        0.0%
COMRAM              5F     5F      5F       1      100.0%
BITSFR_1             0      0       0     200        0.0%
SFR_1                0      0       0     200        0.0%
BITSFR               0      0       0     200        0.0%
SFR                  0      0       0     200        0.0%
STACK                0      0       0       2        0.0%
NULL                 0      0       0       0        0.0%
ABS                  0      0      CB       6        0.0%
DATA                 0      0      CB       3        0.0%
CODE                 0      0       0       0        0.0%


Microchip Technology PIC18 Macro Assembler V2.32 build 20210201212658 
Symbol Table                                                                                   Sun Nov 07 18:41:47 2021

           ___fldiv@aexp 003B             ___fldiv@bexp 003A             ___fldiv@sign 0033  
__size_of_PWM_Initialize 00B4                       l41 6CF6                       l45 6F3C  
                     l62 73EE                       l63 73B2                       l81 7148  
                     l77 6E86      ___wmul@multiplicand 0003                      l101 6D1C  
                    l180 7254                      l521 6DC2                      l528 6DD2  
                    l722 7E90                      l715 7C9A                      l732 7FC0  
                    l724 7F08                      l725 7EF6                      l398 7042  
                    l719 7FFE                      l770 753A                      l683 7BD4  
                    l763 74DE                      l756 7446                      l685 7A34  
                    l694 7A7A                      l759 75A2                      l696 7AF2  
                    l688 79F8                      l697 7AE0                      _PR2 000FBB  
                    u940 715C                      u941 7158                      u950 717E  
                    u951 717A                      u960 71B8                      u961 71B4  
                    u970 71DA                      u971 71D6                      u980 7202  
                    u981 71FE                      u990 7234                      u991 7230  
                    _TON 7256                      wreg 000FE8             ___flmul@aexp 004D  
           ___flmul@bexp 004E             ___flmul@sign 0048             ___flmul@temp 0053  
           ___flmul@prod 004F                     ?_TON 0005             ___fltol@exp1 005E  
                   l1400 7214                     l1402 721E                     l1404 7224  
                   l1500 7A60                     l1420 7868                     l1412 783C  
                   l1406 7234                     l1510 7A9C                     l1502 7A6A  
                   l1430 78A2                     l1422 7878                     l1414 7848  
                   l1408 7244                     l1520 7B0E                     l1512 7AAA  
                   l1504 7A78                     l1440 78CE                     l1432 78A8  
                   l1424 7888                     l1416 7856                     l1600 7D1E  
                   l1360 6CE6                     l1370 714E                     l1530 7B7A  
                   l1522 7B1C                     l1514 7AD8                     l1506 7A8A  
                   l1450 7908                     l1442 78DE                     l1434 78AE  
                   l1426 788A                     l1418 7858                     l1610 7D60  
                   l1602 7D2A                     l1362 6CF8                     l1380 718E  
                   l1372 715C                     l1540 7BC8                     l1532 7B94  
                   l1524 7B46                     l1508 7A98                     l1452 791E  
                   l1444 78EE                     l1436 78BC                     l1428 7892  
                   l1620 7DC2                     l1612 7D6C                     l1604 7D36  
                   l1364 6D14                     l1390 71CC                     l1382 7192  
                   l1374 716C                     l1542 7BCA                     l1534 7BB0  
                   l1518 7B02                     l1526 7B4A                     l1470 7972  
                   l1454 792E                     l1462 794E                     l1446 78F0  
                   l1438 78BE                     l1630 7E58                     l1622 7DCE  
                   l1614 7D7C                     l1606 7D44                     l1550 7BD6  
                   l1702 6FCE                     l1392 71DA                     l1384 71A2  
                   l1376 7170                     l1368 714A                     l1536 7BB4  
                   l1528 7B64                     l1480 79C4                     l1472 798C  
                   l1464 795E                     l1456 7936                     l1448 78F8  
                   l1640 7EAE                     l1632 7E76                     l1624 7DEA  
                   l1616 7D96                     l1608 7D50                     l1560 7C12  
                   l1552 7BE2                     l1720 7032                     l1712 6FF6  
                   l1704 6FD8                     l1800 7268                     l1394 71E4  
                   l1386 71B8                     l1378 717E                     l1538 7BC2  
                   l1490 7A20                     l1482 79D4                     l1474 799C  
                   l1466 795E                     l1458 793A                     l1650 7F18  
                   l1642 7EB2                     l1634 7E80                     l1626 7E14  
                   l1618 7DA6                     l1570 7C44                     l1562 7C22  
                   l1554 7BF0                     l1714 7002                     l1706 6FE2  
                   l1730 7456                     l1802 728C                     l1396 7202  
                   l1388 71C0                     l1492 7A22                     l1484 79E8  
                   l1476 79AC                     l1660 7F7A                     l1652 7F24  
                   l1644 7EC0                     l1636 7E8E                     l1628 7E4A  
                   l1580 7C84                     l1572 7C52                     l1564 7C28  
                   l1556 7BF2                     l1716 7012                     l1740 7494  
                   l1732 746C                     l1724 73F2                     l1804 72C4  
                   l1900 7616                     l1398 7212                     l1494 7A32  
                   l1486 79F6                     l1478 79BC                     l1670 7FE2  
                   l1662 7F8E                     l1654 7F32                     l1646 7EEE  
                   l1638 7EA0                     l1590 7CCE                     l1582 7C8A  
                   l1574 7C54                     l1566 7C38                     l1558 7C02  
                   l1718 7022                     l1750 751C                     l1742 74C6  
                   l1726 7402                     l1806 72D6                     l1814 7306  
                   l1910 76BC                     l1902 7676                     l1496 7A44  
                   l1488 7A02                     l1672 7FE4                     l1664 7FA8  
                   l1656 7F5C                     l1592 7CDA                     l1584 7CAA  
                   l1576 7C64                     l1568 7C3E                     l1680 6F3E  
                   l1760 7572                     l1752 752A                     l1744 74C8  
                   l1736 7480                     l1728 7410                     l1840 6E02  
                   l1832 6DD4                     l1816 7318                     l1808 72FA  
                   l1920 775A                     l1904 767C                     l1912 76C8  
                   l1498 7A5A                     l1666 7FC4                     l1674 7FEA  
                   l1658 7F60                     l1594 7CE4                     l1586 7CBA  
                   l1578 7C74                     l1690 6F94                     l1682 6F54  
                   l1762 7582                     l1754 7548                     l1746 74D4  
                   l1738 7488                     l1850 6E80                     l1842 6E2E  
                   l1834 6DD8                     l1818 7394                     l1826 73B2  
                   l1770 6E88                     l1922 775E                     l1914 7736  
                   l1930 77A4                     l1906 7698                     l1676 7FEE  
                   l1668 7FD4                     l1596 7CFA                     l1692 6FA4  
                   l1764 7590                     l1756 754A                     l1748 7510  
                   l1860 7044                     l1852 6E82                     l1844 6E7A  
                   l1836 6DE6                     l1828 73E6                     l1772 6E9A  
                   l1940 7824                     l1932 77D8                     l1924 777C  
                   l1916 774A                     l1908 76A0                     l1598 7D06  
                   l1694 6FA8                     l1686 6F68                     l1766 7592  
                   l1758 754E                     l1862 7058                     l1854 6E84  
                   l1846 6E7C                     l1838 6DF4                     l1870 6D4C  
                   l1774 6EBE                     l1782 6EE4                     l1934 77E2  
                   l1918 7758                     l1926 7790                     l1696 6FB6  
                   l1688 6F92                     l1864 7118                     l1848 6E7E  
                   l1880 6DA2                     l1872 6D62                     l1784 6EF6  
                   l1776 6ED8                     l1936 77F2                     l1928 77A2  
                   l1866 712C                     l1962 6E18                     l1882 6DB2  
                   l1874 6D6A                     l1786 6F1A                     l1938 7800  
                   l1890 75D8                     l1868 712E                     l1884 6DBC  
                   l1876 6D76                     l1788 6F34                     l1892 75DC  
                   l1798 7256                     l1878 6D84                     l1894 75F8  
                   l1886 75A4                     l1896 7604                     l1888 75AE  
                   l1898 760E                     u1000 7856                     u1001 7852  
                   u1010 7868                     u1011 7864                     u1100 7A20  
                   u1020 7878                     u1101 7A1C                     u1021 7874  
                   u1110 7A44                     u1030 78BC                     u1111 7A40  
                   u1031 78B8                     u1200 7B64                     u1120 7A5A  
                   u1040 78CE                     u1201 7B60                     u1121 7A56  
                   u1041 78CA                     u1210 7B94                     u1130 7A78  
                   u1050 78DE                     u1211 7B90                     u1131 7A74  
                   u1051 78DA                     u1220 7BC2                     u1140 7A98  
                   u1060 791E                     u1300 7CBA                     u1221 7BBE  
                   u1141 7A94                     u1061 791A                     u1301 7CB6  
                   u1150 7AAA                     u1070 795E                     u1310 7E34  
                   u1230 7BF0                     u1151 7AA6                     u1071 795A  
                   u1231 7BEC                     u1160 7AD8                     u1080 79D4  
                   u1400 7FA8                     u1320 7E8E                     u1240 7C02  
                   u1161 7AD4                     u1081 79D0                     u1401 7FA4  
                   u1321 7E8A                     u1241 7BFE                     u1170 7AEE  
                   u1090 79F6                     u1410 7FE2                     u1330 7EAE  
                   u1250 7C12                     u1171 7AEA                     u1091 79F2  
                   u1411 7FDE                     u1331 7EAA                     u1315 7E2A  
                   u1251 7C0E                     u1180 7B02                     u1340 7EC0  
                   u1260 7C52                     u1420 6F54                     u1500 7410  
                   u1181 7AFE                     u1341 7EBC                     u1261 7C4E  
                   u1421 6F50                     u1501 740C                     u1190 7B1C  
                   u1350 7EEE                     u1270 7C64                     u1430 6F88  
                   u1510 746C                     u1191 7B18                     u1351 7EEA  
                   u1271 7C60                     u1511 7468                     u1360 7F04  
                   u1280 7C74                     u1440 6FB6                     u1520 74C2  
                   u1600 6EBE                     u1361 7F00                     u1281 7C70  
                   u1441 6FB2                     u1521 74BE                     u1601 6EBA  
                   u1370 7F18                     u1290 7CAA                     u1450 6FCA  
                   u1530 750C                     u1610 6EF6                     u1371 7F14  
                   u1291 7CA6                     u1451 6FC6                     u1435 6F7E  
                   u1531 7508                     u1611 6EF2                     u1380 7F32  
                   u1460 6FF2                     u1540 752A                     u1700 712A  
                   u1620 6F1A                     u1381 7F2E                     u1461 6FEE  
                   u1541 7526                     u1701 7124                     u1621 6F16  
                   u1390 7F7A                     u1470 7012                     u1550 753A  
                   u1630 7268                     u1391 7F76                     u1471 700E  
                   u1551 7536                     u1631 7264                     u1480 7022  
                   u1560 7548                     u1640 728C                     u1720 6D62  
                   u1800 7736                     u1481 701E                     u1561 7544  
                   u1641 7288                     u1721 6D5E                     u1801 7732  
                   u1570 7582                     u1490 7402                     u1650 72D6  
                   u1730 6D84                     u1810 774A                     u1571 757E  
                   u1491 73FE                     u1715 712C                     u1651 72D2  
                   u1731 6D80                     u1811 7746                     u1580 7590  
                   u1660 72FA                     u1740 6DA2                     u1820 7758  
                   u1581 758C                     u1661 72F6                     u1741 6D9E  
                   u1821 7754                     u1670 7318                     u1590 6E9A  
                   u1830 777C                     u1750 7628                     u1671 7314  
                   u1591 6E96                     u1831 7778                     u1751 7620  
                   u1680 7394                     u1840 77A2                     u1760 7676  
                   u1681 7390                     u1841 779E                     u1761 7672  
                   u1690 7058                     u1850 77D8                     u1770 7698  
                   u1691 7054                     u1851 77D4                     u1771 7694  
                   u1860 7824                     u1780 770C                     u1861 7820  
                   u1781 7706                     u1790 770E                     u1758 762A  
                   u1877 77E8                     _main 75A4                     fsr2h 000FDA  
                   fsr2l 000FD9                     prodh 000FF4                     prodl 000FF3  
                   start 2000          ___fldiv@new_exp 0034              main@stopper 00BE  
           ___param_bank 000000                    ??_TON 000B            ___fltol@sign1 005D  
        __end_of___aldiv 7256                    ?_main 0001                    _CCP1X 007DED  
        __end_of___fldiv 7BD6                    _CCP1Y 007DEC          __end_of___flmul 8000  
        __end_of___fltol 7044          __end_of___llmod 6DD4                    _T2CON 000FBA  
        __end_of_oneShot 6F3E         __end_of_PWM_Duty 714A                    tablat 000FF5  
                  status 000FD8          __initialization 6D1E             __end_of_main 783C  
                 ??_main 005F            __activetblptr 000002           oneShot@precond 0019  
                 _CCP1M2 007DEA                   _CCP1M3 007DEB         ___llmod@dividend 0005  
                 _CCPR1L 000FBE                   _TMR2ON 007DD2                   _TRISC2 007CA2  
       __end_of___xxtofl 75A4                ??___aldiv 000F                   ___wmul 6CF8  
              ??___fldiv 002B                ??___flmul 0044            main@numBlinks 00C2  
         _PWM_Initialize 6DD4                ??___fltol 0059                ??___llmod 000D  
                 _millis 6CE6                   clear_0 6D3C                   isa$std 000001  
              ??_oneShot 001D                   tblptrh 000FF7                   tblptrl 000FF6  
                 tblptru 000FF8             PWM_Duty@duty 00BA             ___xxtofl@arg 001F  
           ___xxtofl@exp 001E             ___xxtofl@val 0015               __accesstop 0060  
__end_of__initialization 6D42            ___rparam_used 000001               ___fltol@f1 0055  
 __end_of_PWM_Initialize 6E88           __pcstackCOMRAM 0001             __pidataBANK0 6CE4  
              ?_PWM_Duty 00BA               __pbssBANK0 0060          ?_PWM_Initialize 0001  
                ?___wmul 0001                  ?_millis 0001               ??_PWM_Duty 00BC  
                _T2CKPS0 007DD0                  _T2CKPS1 007DD1                ?___xxtofl 0015  
              TON@preset 0007                  __Hparam 0000                  __Lparam 0000  
                ___aldiv 714A                  ___fldiv 783C                  ___flmul 7BD6  
                ___fltol 6F3E          __size_of___wmul 0026                  ___llmod 6D4C  
                __pcinit 6D1E          __size_of_millis 0012                  __ramtop 0800  
                __ptext0 75A4                  __ptext1 6E88                  __ptext2 6D4C  
                __ptext3 7256                  __ptext4 6CE6                  __ptext5 6DD4  
                __ptext6 7044                  __ptext7 73F0                  __ptext8 6CF8  
                __ptext9 6F3E             __size_of_TON 019A               ??___xxtofl 0019  
                _oneShot 6E88         ___aldiv@dividend 0007     end_of_initialization 6D42  
          __Lmediumconst 0000         ___aldiv@quotient 0011                  postdec2 000FDD  
                postinc0 000FEE                  postinc2 000FDE                _PORTBbits 000F81  
          ___xxtofl@sign 001D                _TRISBbits 000F93                _TRISCbits 000F94  
            ___fldiv@grs 0036              ___fldiv@rem 002F              ___flmul@grs 0049  
         __end_of___wmul 6D1E           __end_of_millis 6CF8      start_initialization 6D1E  
      __size_of_PWM_Duty 0106              __end_of_TON 73F0         ??_PWM_Initialize 0015  
        ___llmod@divisor 0009          ___llmod@counter 000D                 ??___wmul 0005  
            __pdataBANK0 00CA                 ??_millis 0005                ___fldiv@a 0027  
              ___fldiv@b 0023                ___flmul@a 0040                ___flmul@b 003C  
             oneShot@OSR 001B            __pcstackBANK0 00BA        __size_of___xxtofl 01B4  
         TON@timerNumber 0009           _timerInSession 0090          main@donePulsing 00C6  
               ?___aldiv 0007                 ?___fldiv 0023                 ?___flmul 003C  
               ?___fltol 0055                 ?___llmod 0005                 ?_oneShot 0019  
               TON@input 0005          ___aldiv@divisor 000B          ___aldiv@counter 000F  
         ___wmul@product 0005                 _LATCbits 000F8B             _milliseconds 00B0  
               _PWM_Duty 7044        ___wmul@multiplier 0001                 _PWM_freq 00CA  
               __Hrparam 0000                 __Lrparam 0000         __size_of___aldiv 010C  
       __size_of___fldiv 039A         __size_of___flmul 042A         __size_of___fltol 0106  
       __size_of___llmod 0088             _TMR2PRESCALE 00B4                 ___xxtofl 73F0  
               _main$884 00C4         __size_of_oneShot 00B6                 __ptext10 7BD6  
               __ptext11 783C                 __ptext12 714A              _oneShotBits 00A0  
          __size_of_main 0298                 isa$xinst 000000                 main@mode 00C8  
           _timerTracker 00B6              _timerMemory 0080              _timerTimers 0060  
           ___aldiv@sign 0010               _ONSTracker 00B8  
